
F:\\Pokitto\\FemtoIDE\\projects\\!Joe_2/!Joe_2.elf:     file format elf32-littlearm


Disassembly of section .text:

00000000 <g_pfnVectors>:
       0:	8000      	strh	r0, [r0, #0]
       2:	1000      	asrs	r0, r0, #32
       4:	00fd      	lsls	r5, r7, #3
       6:	0000      	movs	r0, r0
       8:	09ad      	lsrs	r5, r5, #6
       a:	0000      	movs	r0, r0
       c:	09b1      	lsrs	r1, r6, #6
	...
      1a:	0000      	movs	r0, r0
      1c:	6ba5      	ldr	r5, [r4, #56]	; 0x38
      1e:	efff 0000 	vext.8	d16, d15, d0, #0
	...
      2a:	0000      	movs	r0, r0
      2c:	09b3      	lsrs	r3, r6, #6
	...
      36:	0000      	movs	r0, r0
      38:	09b5      	lsrs	r5, r6, #6
      3a:	0000      	movs	r0, r0
      3c:	5e7d      	ldrsh	r5, [r7, r1]
      3e:	0000      	movs	r0, r0
      40:	09af      	lsrs	r7, r5, #6
      42:	0000      	movs	r0, r0
      44:	09af      	lsrs	r7, r5, #6
      46:	0000      	movs	r0, r0
      48:	09af      	lsrs	r7, r5, #6
      4a:	0000      	movs	r0, r0
      4c:	09af      	lsrs	r7, r5, #6
      4e:	0000      	movs	r0, r0
      50:	09af      	lsrs	r7, r5, #6
      52:	0000      	movs	r0, r0
      54:	09af      	lsrs	r7, r5, #6
      56:	0000      	movs	r0, r0
      58:	09af      	lsrs	r7, r5, #6
      5a:	0000      	movs	r0, r0
      5c:	09af      	lsrs	r7, r5, #6
      5e:	0000      	movs	r0, r0
      60:	09af      	lsrs	r7, r5, #6
      62:	0000      	movs	r0, r0
      64:	09af      	lsrs	r7, r5, #6
      66:	0000      	movs	r0, r0
      68:	09af      	lsrs	r7, r5, #6
      6a:	0000      	movs	r0, r0
      6c:	09af      	lsrs	r7, r5, #6
      6e:	0000      	movs	r0, r0
      70:	09af      	lsrs	r7, r5, #6
      72:	0000      	movs	r0, r0
      74:	09af      	lsrs	r7, r5, #6
      76:	0000      	movs	r0, r0
      78:	09af      	lsrs	r7, r5, #6
      7a:	0000      	movs	r0, r0
      7c:	09af      	lsrs	r7, r5, #6
      7e:	0000      	movs	r0, r0
      80:	09af      	lsrs	r7, r5, #6
      82:	0000      	movs	r0, r0
      84:	09af      	lsrs	r7, r5, #6
      86:	0000      	movs	r0, r0
      88:	09af      	lsrs	r7, r5, #6
      8a:	0000      	movs	r0, r0
      8c:	09af      	lsrs	r7, r5, #6
      8e:	0000      	movs	r0, r0
      90:	09af      	lsrs	r7, r5, #6
      92:	0000      	movs	r0, r0
      94:	09af      	lsrs	r7, r5, #6
      96:	0000      	movs	r0, r0
      98:	09af      	lsrs	r7, r5, #6
      9a:	0000      	movs	r0, r0
      9c:	09af      	lsrs	r7, r5, #6
      9e:	0000      	movs	r0, r0
      a0:	09af      	lsrs	r7, r5, #6
      a2:	0000      	movs	r0, r0
      a4:	09af      	lsrs	r7, r5, #6
      a6:	0000      	movs	r0, r0
      a8:	09af      	lsrs	r7, r5, #6
      aa:	0000      	movs	r0, r0
      ac:	09af      	lsrs	r7, r5, #6
      ae:	0000      	movs	r0, r0
      b0:	09af      	lsrs	r7, r5, #6
      b2:	0000      	movs	r0, r0
      b4:	09af      	lsrs	r7, r5, #6
      b6:	0000      	movs	r0, r0
      b8:	09af      	lsrs	r7, r5, #6
      ba:	0000      	movs	r0, r0
      bc:	0000      	movs	r0, r0
	...

000000c0 <__data_section_table>:
__data_section_table():
      c0:	6648      	str	r0, [r1, #100]	; 0x64
      c2:	0002      	movs	r2, r0
      c4:	0100      	lsls	r0, r0, #4
      c6:	1000      	asrs	r0, r0, #32
      c8:	0134      	lsls	r4, r6, #4
      ca:	0000      	movs	r0, r0
      cc:	6648      	str	r0, [r1, #100]	; 0x64
      ce:	0002      	movs	r2, r0
      d0:	0000      	movs	r0, r0
      d2:	2000      	movs	r0, #0
      d4:	0000      	movs	r0, r0
      d6:	0000      	movs	r0, r0
      d8:	6648      	str	r0, [r1, #100]	; 0x64
      da:	0002      	movs	r2, r0
      dc:	4000      	ands	r0, r0
      de:	2000      	movs	r0, #0
      e0:	0000      	movs	r0, r0
	...

000000e4 <__bss_section_table>:
__bss_section_table():
      e4:	0238      	lsls	r0, r7, #8
      e6:	1000      	asrs	r0, r0, #32
      e8:	5af4      	ldrh	r4, [r6, r3]
      ea:	0000      	movs	r0, r0
      ec:	0000      	movs	r0, r0
      ee:	2000      	movs	r0, #0
      f0:	0000      	movs	r0, r0
      f2:	0000      	movs	r0, r0
      f4:	4000      	ands	r0, r0
      f6:	2000      	movs	r0, #0
      f8:	0000      	movs	r0, r0
	...

000000fc <ResetISR>:
ResetISR():
      fc:	b510      	push	{r4, lr}
      fe:	4c10      	ldr	r4, [pc, #64]	; (140 <ResetISR+0x44>)
     100:	4b10      	ldr	r3, [pc, #64]	; (144 <ResetISR+0x48>)
     102:	429c      	cmp	r4, r3
     104:	d206      	bcs.n	114 <ResetISR+0x18>
     106:	68a2      	ldr	r2, [r4, #8]
     108:	6861      	ldr	r1, [r4, #4]
     10a:	6820      	ldr	r0, [r4, #0]
     10c:	f000 fc53 	bl	9b6 <data_init>
     110:	340c      	adds	r4, #12
     112:	e7f5      	b.n	100 <ResetISR+0x4>
     114:	4b0c      	ldr	r3, [pc, #48]	; (148 <ResetISR+0x4c>)
     116:	429c      	cmp	r4, r3
     118:	d205      	bcs.n	126 <ResetISR+0x2a>
     11a:	6861      	ldr	r1, [r4, #4]
     11c:	6820      	ldr	r0, [r4, #0]
     11e:	f000 fc55 	bl	9cc <bss_init>
     122:	3408      	adds	r4, #8
     124:	e7f6      	b.n	114 <ResetISR+0x18>
     126:	f001 fa6f 	bl	1608 <SystemInit>
     12a:	4b08      	ldr	r3, [pc, #32]	; (14c <ResetISR+0x50>)
     12c:	2b00      	cmp	r3, #0
     12e:	d002      	beq.n	136 <ResetISR+0x3a>
     130:	e000      	b.n	134 <ResetISR+0x38>
     132:	bf00      	nop
     134:	e7fe      	b.n	134 <ResetISR+0x38>
     136:	f00b fc27 	bl	b988 <__libc_init_array>
     13a:	f00a ffbd 	bl	b0b8 <main>
     13e:	e7f9      	b.n	134 <ResetISR+0x38>
     140:	00c0      	lsls	r0, r0, #3
     142:	0000      	movs	r0, r0
     144:	00e4      	lsls	r4, r4, #3
     146:	0000      	movs	r0, r0
     148:	00fc      	lsls	r4, r7, #3
     14a:	0000      	movs	r0, r0
     14c:	0000      	movs	r0, r0
	...

00000150 <__do_global_dtors_aux>:
__do_global_dtors_aux():
     150:	b510      	push	{r4, lr}
     152:	4c06      	ldr	r4, [pc, #24]	; (16c <__do_global_dtors_aux+0x1c>)
     154:	7823      	ldrb	r3, [r4, #0]
     156:	2b00      	cmp	r3, #0
     158:	d107      	bne.n	16a <__do_global_dtors_aux+0x1a>
     15a:	4b05      	ldr	r3, [pc, #20]	; (170 <__do_global_dtors_aux+0x20>)
     15c:	2b00      	cmp	r3, #0
     15e:	d002      	beq.n	166 <__do_global_dtors_aux+0x16>
     160:	4804      	ldr	r0, [pc, #16]	; (174 <__do_global_dtors_aux+0x24>)
     162:	e000      	b.n	166 <__do_global_dtors_aux+0x16>
     164:	bf00      	nop
     166:	2301      	movs	r3, #1
     168:	7023      	strb	r3, [r4, #0]
     16a:	bd10      	pop	{r4, pc}
     16c:	0238      	lsls	r0, r7, #8
     16e:	1000      	asrs	r0, r0, #32
     170:	0000      	movs	r0, r0
     172:	0000      	movs	r0, r0
     174:	6648      	str	r0, [r1, #100]	; 0x64
     176:	0002      	movs	r2, r0

00000178 <frame_dummy>:
frame_dummy():
     178:	4b04      	ldr	r3, [pc, #16]	; (18c <frame_dummy+0x14>)
     17a:	b510      	push	{r4, lr}
     17c:	2b00      	cmp	r3, #0
     17e:	d003      	beq.n	188 <frame_dummy+0x10>
     180:	4903      	ldr	r1, [pc, #12]	; (190 <frame_dummy+0x18>)
     182:	4804      	ldr	r0, [pc, #16]	; (194 <frame_dummy+0x1c>)
     184:	e000      	b.n	188 <frame_dummy+0x10>
     186:	bf00      	nop
     188:	bd10      	pop	{r4, pc}
     18a:	46c0      	nop			; (mov r8, r8)
     18c:	0000      	movs	r0, r0
     18e:	0000      	movs	r0, r0
     190:	023c      	lsls	r4, r7, #8
     192:	1000      	asrs	r0, r0, #32
     194:	6648      	str	r0, [r1, #100]	; 0x64
     196:	0002      	movs	r2, r0

00000198 <Chip_Clock_GetWDTOSCRate>:
Chip_Clock_GetWDTOSCRate():
     198:	221f      	movs	r2, #31
     19a:	4b07      	ldr	r3, [pc, #28]	; (1b8 <Chip_Clock_GetWDTOSCRate+0x20>)
     19c:	b510      	push	{r4, lr}
     19e:	6a59      	ldr	r1, [r3, #36]	; 0x24
     1a0:	05cb      	lsls	r3, r1, #23
     1a2:	0f1b      	lsrs	r3, r3, #28
     1a4:	4011      	ands	r1, r2
     1a6:	4a05      	ldr	r2, [pc, #20]	; (1bc <Chip_Clock_GetWDTOSCRate+0x24>)
     1a8:	009b      	lsls	r3, r3, #2
     1aa:	3101      	adds	r1, #1
     1ac:	0049      	lsls	r1, r1, #1
     1ae:	5898      	ldr	r0, [r3, r2]
     1b0:	f00c fc58 	bl	ca64 <__udivsi3>
     1b4:	bd10      	pop	{r4, pc}
     1b6:	46c0      	nop			; (mov r8, r8)
     1b8:	8000      	strh	r0, [r0, #0]
     1ba:	4004      	ands	r4, r0
     1bc:	f66c 0000 			; <UNDEFINED> instruction: 0xf66c0000

000001c0 <Chip_Clock_GetSystemPLLInClockRate>:
Chip_Clock_GetSystemPLLInClockRate():
     1c0:	4b06      	ldr	r3, [pc, #24]	; (1dc <Chip_Clock_GetSystemPLLInClockRate+0x1c>)
     1c2:	6c18      	ldr	r0, [r3, #64]	; 0x40
     1c4:	2303      	movs	r3, #3
     1c6:	4018      	ands	r0, r3
     1c8:	2801      	cmp	r0, #1
     1ca:	dd04      	ble.n	1d6 <Chip_Clock_GetSystemPLLInClockRate+0x16>
     1cc:	3803      	subs	r0, #3
     1ce:	4243      	negs	r3, r0
     1d0:	4158      	adcs	r0, r3
     1d2:	03c0      	lsls	r0, r0, #15
     1d4:	4770      	bx	lr
     1d6:	4802      	ldr	r0, [pc, #8]	; (1e0 <Chip_Clock_GetSystemPLLInClockRate+0x20>)
     1d8:	e7fc      	b.n	1d4 <Chip_Clock_GetSystemPLLInClockRate+0x14>
     1da:	46c0      	nop			; (mov r8, r8)
     1dc:	8000      	strh	r0, [r0, #0]
     1de:	4004      	ands	r4, r0
     1e0:	1b00      	subs	r0, r0, r4
     1e2:	00b7      	lsls	r7, r6, #2

000001e4 <Chip_Clock_GetSystemPLLOutClockRate>:
Chip_Clock_GetSystemPLLOutClockRate():
     1e4:	4b04      	ldr	r3, [pc, #16]	; (1f8 <Chip_Clock_GetSystemPLLOutClockRate+0x14>)
     1e6:	b510      	push	{r4, lr}
     1e8:	689c      	ldr	r4, [r3, #8]
     1ea:	f7ff ffe9 	bl	1c0 <Chip_Clock_GetSystemPLLInClockRate>
     1ee:	231f      	movs	r3, #31
     1f0:	401c      	ands	r4, r3
     1f2:	3401      	adds	r4, #1
     1f4:	4360      	muls	r0, r4
     1f6:	bd10      	pop	{r4, pc}
     1f8:	8000      	strh	r0, [r0, #0]
     1fa:	4004      	ands	r4, r0

000001fc <Chip_Clock_GetMainClockRate>:
Chip_Clock_GetMainClockRate():
     1fc:	2203      	movs	r2, #3
     1fe:	4b0a      	ldr	r3, [pc, #40]	; (228 <Chip_Clock_GetMainClockRate+0x2c>)
     200:	b510      	push	{r4, lr}
     202:	6f1b      	ldr	r3, [r3, #112]	; 0x70
     204:	4013      	ands	r3, r2
     206:	2b02      	cmp	r3, #2
     208:	d006      	beq.n	218 <Chip_Clock_GetMainClockRate+0x1c>
     20a:	4293      	cmp	r3, r2
     20c:	d007      	beq.n	21e <Chip_Clock_GetMainClockRate+0x22>
     20e:	2b01      	cmp	r3, #1
     210:	d108      	bne.n	224 <Chip_Clock_GetMainClockRate+0x28>
     212:	f7ff ffd5 	bl	1c0 <Chip_Clock_GetSystemPLLInClockRate>
     216:	bd10      	pop	{r4, pc}
     218:	f7ff ffbe 	bl	198 <Chip_Clock_GetWDTOSCRate>
     21c:	e7fb      	b.n	216 <Chip_Clock_GetMainClockRate+0x1a>
     21e:	f7ff ffe1 	bl	1e4 <Chip_Clock_GetSystemPLLOutClockRate>
     222:	e7f8      	b.n	216 <Chip_Clock_GetMainClockRate+0x1a>
     224:	4801      	ldr	r0, [pc, #4]	; (22c <Chip_Clock_GetMainClockRate+0x30>)
     226:	e7f6      	b.n	216 <Chip_Clock_GetMainClockRate+0x1a>
     228:	8000      	strh	r0, [r0, #0]
     22a:	4004      	ands	r4, r0
     22c:	1b00      	subs	r0, r0, r4
     22e:	00b7      	lsls	r7, r6, #2

00000230 <Chip_Clock_GetSystemClockRate>:
Chip_Clock_GetSystemClockRate():
     230:	b510      	push	{r4, lr}
     232:	f7ff ffe3 	bl	1fc <Chip_Clock_GetMainClockRate>
     236:	4b02      	ldr	r3, [pc, #8]	; (240 <Chip_Clock_GetSystemClockRate+0x10>)
     238:	6f99      	ldr	r1, [r3, #120]	; 0x78
     23a:	f00c fc13 	bl	ca64 <__udivsi3>
     23e:	bd10      	pop	{r4, pc}
     240:	8000      	strh	r0, [r0, #0]
     242:	4004      	ands	r4, r0

00000244 <_ZN4PFFSL10clust2sectEm>:
_ZN4PFFSL10clust2sectEm():
     244:	4b06      	ldr	r3, [pc, #24]	; (260 <_ZN4PFFSL10clust2sectEm+0x1c>)
     246:	681a      	ldr	r2, [r3, #0]
     248:	1e83      	subs	r3, r0, #2
     24a:	68d1      	ldr	r1, [r2, #12]
     24c:	2000      	movs	r0, #0
     24e:	3902      	subs	r1, #2
     250:	4299      	cmp	r1, r3
     252:	d903      	bls.n	25c <_ZN4PFFSL10clust2sectEm+0x18>
     254:	7850      	ldrb	r0, [r2, #1]
     256:	4343      	muls	r3, r0
     258:	6990      	ldr	r0, [r2, #24]
     25a:	1818      	adds	r0, r3, r0
     25c:	4770      	bx	lr
     25e:	46c0      	nop			; (mov r8, r8)
     260:	0254      	lsls	r4, r2, #9
     262:	1000      	asrs	r0, r0, #32

00000264 <_ZN4PFFSL10dir_rewindEPNS_5_DIR_E>:
_ZN4PFFSL10dir_rewindEPNS_5_DIR_E():
     264:	2100      	movs	r1, #0
     266:	4b0f      	ldr	r3, [pc, #60]	; (2a4 <_ZN4PFFSL10dir_rewindEPNS_5_DIR_E+0x40>)
     268:	b570      	push	{r4, r5, r6, lr}
     26a:	681a      	ldr	r2, [r3, #0]
     26c:	6883      	ldr	r3, [r0, #8]
     26e:	0004      	movs	r4, r0
     270:	8001      	strh	r1, [r0, #0]
     272:	0018      	movs	r0, r3
     274:	2b01      	cmp	r3, #1
     276:	d014      	beq.n	2a2 <_ZN4PFFSL10dir_rewindEPNS_5_DIR_E+0x3e>
     278:	68d5      	ldr	r5, [r2, #12]
     27a:	2001      	movs	r0, #1
     27c:	429d      	cmp	r5, r3
     27e:	d910      	bls.n	2a2 <_ZN4PFFSL10dir_rewindEPNS_5_DIR_E+0x3e>
     280:	428b      	cmp	r3, r1
     282:	d106      	bne.n	292 <_ZN4PFFSL10dir_rewindEPNS_5_DIR_E+0x2e>
     284:	7810      	ldrb	r0, [r2, #0]
     286:	6953      	ldr	r3, [r2, #20]
     288:	2803      	cmp	r0, #3
     28a:	d002      	beq.n	292 <_ZN4PFFSL10dir_rewindEPNS_5_DIR_E+0x2e>
     28c:	60e1      	str	r1, [r4, #12]
     28e:	6950      	ldr	r0, [r2, #20]
     290:	e005      	b.n	29e <_ZN4PFFSL10dir_rewindEPNS_5_DIR_E+0x3a>
     292:	60e3      	str	r3, [r4, #12]
     294:	2b00      	cmp	r3, #0
     296:	d0fa      	beq.n	28e <_ZN4PFFSL10dir_rewindEPNS_5_DIR_E+0x2a>
     298:	0018      	movs	r0, r3
     29a:	f7ff ffd3 	bl	244 <_ZN4PFFSL10clust2sectEm>
     29e:	6120      	str	r0, [r4, #16]
     2a0:	2000      	movs	r0, #0
     2a2:	bd70      	pop	{r4, r5, r6, pc}
     2a4:	0254      	lsls	r4, r2, #9
     2a6:	1000      	asrs	r0, r0, #32

000002a8 <_ZN4PFFSL7get_fatEm>:
_ZN4PFFSL7get_fatEm():
     2a8:	b5f0      	push	{r4, r5, r6, r7, lr}
     2aa:	0004      	movs	r4, r0
     2ac:	b085      	sub	sp, #20
     2ae:	2801      	cmp	r0, #1
     2b0:	d802      	bhi.n	2b8 <_ZN4PFFSL7get_fatEm+0x10>
     2b2:	2001      	movs	r0, #1
     2b4:	b005      	add	sp, #20
     2b6:	bdf0      	pop	{r4, r5, r6, r7, pc}
     2b8:	4b2d      	ldr	r3, [pc, #180]	; (370 <_ZN4PFFSL7get_fatEm+0xc8>)
     2ba:	681d      	ldr	r5, [r3, #0]
     2bc:	68eb      	ldr	r3, [r5, #12]
     2be:	4283      	cmp	r3, r0
     2c0:	d9f7      	bls.n	2b2 <_ZN4PFFSL7get_fatEm+0xa>
     2c2:	782e      	ldrb	r6, [r5, #0]
     2c4:	2e02      	cmp	r6, #2
     2c6:	d031      	beq.n	32c <_ZN4PFFSL7get_fatEm+0x84>
     2c8:	2e03      	cmp	r6, #3
     2ca:	d040      	beq.n	34e <_ZN4PFFSL7get_fatEm+0xa6>
     2cc:	2001      	movs	r0, #1
     2ce:	4286      	cmp	r6, r0
     2d0:	d1f0      	bne.n	2b4 <_ZN4PFFSL7get_fatEm+0xc>
     2d2:	b2a3      	uxth	r3, r4
     2d4:	0859      	lsrs	r1, r3, #1
     2d6:	18c9      	adds	r1, r1, r3
     2d8:	b289      	uxth	r1, r1
     2da:	0a4b      	lsrs	r3, r1, #9
     2dc:	05ca      	lsls	r2, r1, #23
     2de:	6929      	ldr	r1, [r5, #16]
     2e0:	9301      	str	r3, [sp, #4]
     2e2:	1859      	adds	r1, r3, r1
     2e4:	4b23      	ldr	r3, [pc, #140]	; (374 <_ZN4PFFSL7get_fatEm+0xcc>)
     2e6:	0dd2      	lsrs	r2, r2, #23
     2e8:	af03      	add	r7, sp, #12
     2ea:	429a      	cmp	r2, r3
     2ec:	d010      	beq.n	310 <_ZN4PFFSL7get_fatEm+0x68>
     2ee:	0038      	movs	r0, r7
     2f0:	3bfe      	subs	r3, #254	; 0xfe
     2f2:	3bff      	subs	r3, #255	; 0xff
     2f4:	f000 fbea 	bl	acc <_ZN4PFFS10disk_readpEPhmtt>
     2f8:	2800      	cmp	r0, #0
     2fa:	d1da      	bne.n	2b2 <_ZN4PFFSL7get_fatEm+0xa>
     2fc:	7878      	ldrb	r0, [r7, #1]
     2fe:	783b      	ldrb	r3, [r7, #0]
     300:	0200      	lsls	r0, r0, #8
     302:	4303      	orrs	r3, r0
     304:	1118      	asrs	r0, r3, #4
     306:	07e2      	lsls	r2, r4, #31
     308:	d4d4      	bmi.n	2b4 <_ZN4PFFSL7get_fatEm+0xc>
     30a:	0518      	lsls	r0, r3, #20
     30c:	0d00      	lsrs	r0, r0, #20
     30e:	e7d1      	b.n	2b4 <_ZN4PFFSL7get_fatEm+0xc>
     310:	0033      	movs	r3, r6
     312:	0038      	movs	r0, r7
     314:	f000 fbda 	bl	acc <_ZN4PFFS10disk_readpEPhmtt>
     318:	1e02      	subs	r2, r0, #0
     31a:	d1ca      	bne.n	2b2 <_ZN4PFFSL7get_fatEm+0xa>
     31c:	6929      	ldr	r1, [r5, #16]
     31e:	9b01      	ldr	r3, [sp, #4]
     320:	3101      	adds	r1, #1
     322:	a802      	add	r0, sp, #8
     324:	18c9      	adds	r1, r1, r3
     326:	3005      	adds	r0, #5
     328:	0033      	movs	r3, r6
     32a:	e7e3      	b.n	2f4 <_ZN4PFFSL7get_fatEm+0x4c>
     32c:	6929      	ldr	r1, [r5, #16]
     32e:	b2c2      	uxtb	r2, r0
     330:	0a04      	lsrs	r4, r0, #8
     332:	ad03      	add	r5, sp, #12
     334:	0052      	lsls	r2, r2, #1
     336:	1861      	adds	r1, r4, r1
     338:	0033      	movs	r3, r6
     33a:	0028      	movs	r0, r5
     33c:	f000 fbc6 	bl	acc <_ZN4PFFS10disk_readpEPhmtt>
     340:	2800      	cmp	r0, #0
     342:	d1b6      	bne.n	2b2 <_ZN4PFFSL7get_fatEm+0xa>
     344:	786b      	ldrb	r3, [r5, #1]
     346:	7828      	ldrb	r0, [r5, #0]
     348:	021b      	lsls	r3, r3, #8
     34a:	4318      	orrs	r0, r3
     34c:	e7b2      	b.n	2b4 <_ZN4PFFSL7get_fatEm+0xc>
     34e:	227f      	movs	r2, #127	; 0x7f
     350:	6929      	ldr	r1, [r5, #16]
     352:	09c4      	lsrs	r4, r0, #7
     354:	4002      	ands	r2, r0
     356:	1861      	adds	r1, r4, r1
     358:	ac03      	add	r4, sp, #12
     35a:	0092      	lsls	r2, r2, #2
     35c:	2304      	movs	r3, #4
     35e:	0020      	movs	r0, r4
     360:	f000 fbb4 	bl	acc <_ZN4PFFS10disk_readpEPhmtt>
     364:	2800      	cmp	r0, #0
     366:	d1a4      	bne.n	2b2 <_ZN4PFFSL7get_fatEm+0xa>
     368:	7863      	ldrb	r3, [r4, #1]
     36a:	7820      	ldrb	r0, [r4, #0]
     36c:	021b      	lsls	r3, r3, #8
     36e:	e7ec      	b.n	34a <_ZN4PFFSL7get_fatEm+0xa2>
     370:	0254      	lsls	r4, r2, #9
     372:	1000      	asrs	r0, r0, #32
     374:	01ff      	lsls	r7, r7, #7
	...

00000378 <_ZN4PFFSL8dir_nextEPNS_5_DIR_E>:
_ZN4PFFSL8dir_nextEPNS_5_DIR_E():
     378:	b570      	push	{r4, r5, r6, lr}
     37a:	8804      	ldrh	r4, [r0, #0]
     37c:	0005      	movs	r5, r0
     37e:	3401      	adds	r4, #1
     380:	b2a4      	uxth	r4, r4
     382:	2c00      	cmp	r4, #0
     384:	d102      	bne.n	38c <_ZN4PFFSL8dir_nextEPNS_5_DIR_E+0x14>
     386:	2303      	movs	r3, #3
     388:	0018      	movs	r0, r3
     38a:	bd70      	pop	{r4, r5, r6, pc}
     38c:	6903      	ldr	r3, [r0, #16]
     38e:	2b00      	cmp	r3, #0
     390:	d0f9      	beq.n	386 <_ZN4PFFSL8dir_nextEPNS_5_DIR_E+0xe>
     392:	0722      	lsls	r2, r4, #28
     394:	d109      	bne.n	3aa <_ZN4PFFSL8dir_nextEPNS_5_DIR_E+0x32>
     396:	3301      	adds	r3, #1
     398:	4a0e      	ldr	r2, [pc, #56]	; (3d4 <_ZN4PFFSL8dir_nextEPNS_5_DIR_E+0x5c>)
     39a:	6103      	str	r3, [r0, #16]
     39c:	68c0      	ldr	r0, [r0, #12]
     39e:	6816      	ldr	r6, [r2, #0]
     3a0:	2800      	cmp	r0, #0
     3a2:	d105      	bne.n	3b0 <_ZN4PFFSL8dir_nextEPNS_5_DIR_E+0x38>
     3a4:	88b3      	ldrh	r3, [r6, #4]
     3a6:	42a3      	cmp	r3, r4
     3a8:	d9ed      	bls.n	386 <_ZN4PFFSL8dir_nextEPNS_5_DIR_E+0xe>
     3aa:	802c      	strh	r4, [r5, #0]
     3ac:	2300      	movs	r3, #0
     3ae:	e7eb      	b.n	388 <_ZN4PFFSL8dir_nextEPNS_5_DIR_E+0x10>
     3b0:	7873      	ldrb	r3, [r6, #1]
     3b2:	0922      	lsrs	r2, r4, #4
     3b4:	3b01      	subs	r3, #1
     3b6:	421a      	tst	r2, r3
     3b8:	d1f7      	bne.n	3aa <_ZN4PFFSL8dir_nextEPNS_5_DIR_E+0x32>
     3ba:	f7ff ff75 	bl	2a8 <_ZN4PFFSL7get_fatEm>
     3be:	2301      	movs	r3, #1
     3c0:	4298      	cmp	r0, r3
     3c2:	d9e1      	bls.n	388 <_ZN4PFFSL8dir_nextEPNS_5_DIR_E+0x10>
     3c4:	68f3      	ldr	r3, [r6, #12]
     3c6:	4283      	cmp	r3, r0
     3c8:	d9dd      	bls.n	386 <_ZN4PFFSL8dir_nextEPNS_5_DIR_E+0xe>
     3ca:	60e8      	str	r0, [r5, #12]
     3cc:	f7ff ff3a 	bl	244 <_ZN4PFFSL10clust2sectEm>
     3d0:	6128      	str	r0, [r5, #16]
     3d2:	e7ea      	b.n	3aa <_ZN4PFFSL8dir_nextEPNS_5_DIR_E+0x32>
     3d4:	0254      	lsls	r4, r2, #9
     3d6:	1000      	asrs	r0, r0, #32

000003d8 <_ZN4PFFSL8check_fsEPhm>:
_ZN4PFFSL8check_fsEPhm():
     3d8:	22ff      	movs	r2, #255	; 0xff
     3da:	b570      	push	{r4, r5, r6, lr}
     3dc:	2302      	movs	r3, #2
     3de:	0052      	lsls	r2, r2, #1
     3e0:	0004      	movs	r4, r0
     3e2:	000d      	movs	r5, r1
     3e4:	f000 fb72 	bl	acc <_ZN4PFFS10disk_readpEPhmtt>
     3e8:	2303      	movs	r3, #3
     3ea:	2800      	cmp	r0, #0
     3ec:	d12b      	bne.n	446 <_ZN4PFFSL8check_fsEPhm+0x6e>
     3ee:	7863      	ldrb	r3, [r4, #1]
     3f0:	7822      	ldrb	r2, [r4, #0]
     3f2:	021b      	lsls	r3, r3, #8
     3f4:	431a      	orrs	r2, r3
     3f6:	4915      	ldr	r1, [pc, #84]	; (44c <_ZN4PFFSL8check_fsEPhm+0x74>)
     3f8:	b212      	sxth	r2, r2
     3fa:	2302      	movs	r3, #2
     3fc:	428a      	cmp	r2, r1
     3fe:	d122      	bne.n	446 <_ZN4PFFSL8check_fsEPhm+0x6e>
     400:	2236      	movs	r2, #54	; 0x36
     402:	0029      	movs	r1, r5
     404:	0020      	movs	r0, r4
     406:	f000 fb61 	bl	acc <_ZN4PFFS10disk_readpEPhmtt>
     40a:	2800      	cmp	r0, #0
     40c:	d108      	bne.n	420 <_ZN4PFFSL8check_fsEPhm+0x48>
     40e:	7863      	ldrb	r3, [r4, #1]
     410:	7822      	ldrb	r2, [r4, #0]
     412:	021b      	lsls	r3, r3, #8
     414:	431a      	orrs	r2, r3
     416:	490e      	ldr	r1, [pc, #56]	; (450 <_ZN4PFFSL8check_fsEPhm+0x78>)
     418:	b212      	sxth	r2, r2
     41a:	0003      	movs	r3, r0
     41c:	428a      	cmp	r2, r1
     41e:	d012      	beq.n	446 <_ZN4PFFSL8check_fsEPhm+0x6e>
     420:	2302      	movs	r3, #2
     422:	2252      	movs	r2, #82	; 0x52
     424:	0029      	movs	r1, r5
     426:	0020      	movs	r0, r4
     428:	f000 fb50 	bl	acc <_ZN4PFFS10disk_readpEPhmtt>
     42c:	2301      	movs	r3, #1
     42e:	2800      	cmp	r0, #0
     430:	d109      	bne.n	446 <_ZN4PFFSL8check_fsEPhm+0x6e>
     432:	7860      	ldrb	r0, [r4, #1]
     434:	7823      	ldrb	r3, [r4, #0]
     436:	0200      	lsls	r0, r0, #8
     438:	4303      	orrs	r3, r0
     43a:	4a06      	ldr	r2, [pc, #24]	; (454 <_ZN4PFFSL8check_fsEPhm+0x7c>)
     43c:	b21b      	sxth	r3, r3
     43e:	189b      	adds	r3, r3, r2
     440:	1e58      	subs	r0, r3, #1
     442:	4183      	sbcs	r3, r0
     444:	b2db      	uxtb	r3, r3
     446:	0018      	movs	r0, r3
     448:	bd70      	pop	{r4, r5, r6, pc}
     44a:	46c0      	nop			; (mov r8, r8)
     44c:	aa55      	add	r2, sp, #340	; 0x154
     44e:	ffff 4146 			; <UNDEFINED> instruction: 0xffff4146
     452:	0000      	movs	r0, r0
     454:	beba      	bkpt	0x00ba
     456:	ffff  	vsli.64	<illegal reg q13.5>, <illegal reg q11.5>, #63	; 0x3f

00000458 <_ZN4PFFSL11follow_pathEPNS_5_DIR_EPKc>:
_ZN4PFFSL11follow_pathEPNS_5_DIR_EPKc():
     458:	b5f7      	push	{r0, r1, r2, r4, r5, r6, r7, lr}
     45a:	0004      	movs	r4, r0
     45c:	000d      	movs	r5, r1
     45e:	782b      	ldrb	r3, [r5, #0]
     460:	2b20      	cmp	r3, #32
     462:	d101      	bne.n	468 <_ZN4PFFSL11follow_pathEPNS_5_DIR_EPKc+0x10>
     464:	3501      	adds	r5, #1
     466:	e7fa      	b.n	45e <_ZN4PFFSL11follow_pathEPNS_5_DIR_EPKc+0x6>
     468:	3b2f      	subs	r3, #47	; 0x2f
     46a:	425a      	negs	r2, r3
     46c:	4153      	adcs	r3, r2
     46e:	2700      	movs	r7, #0
     470:	18ed      	adds	r5, r5, r3
     472:	60a7      	str	r7, [r4, #8]
     474:	782b      	ldrb	r3, [r5, #0]
     476:	2b20      	cmp	r3, #32
     478:	d90a      	bls.n	490 <_ZN4PFFSL11follow_pathEPNS_5_DIR_EPKc+0x38>
     47a:	9701      	str	r7, [sp, #4]
     47c:	6860      	ldr	r0, [r4, #4]
     47e:	0002      	movs	r2, r0
     480:	0003      	movs	r3, r0
     482:	320b      	adds	r2, #11
     484:	429a      	cmp	r2, r3
     486:	d00d      	beq.n	4a4 <_ZN4PFFSL11follow_pathEPNS_5_DIR_EPKc+0x4c>
     488:	2120      	movs	r1, #32
     48a:	7019      	strb	r1, [r3, #0]
     48c:	3301      	adds	r3, #1
     48e:	e7f9      	b.n	484 <_ZN4PFFSL11follow_pathEPNS_5_DIR_EPKc+0x2c>
     490:	0020      	movs	r0, r4
     492:	f7ff fee7 	bl	264 <_ZN4PFFSL10dir_rewindEPNS_5_DIR_E>
     496:	0006      	movs	r6, r0
     498:	4b3e      	ldr	r3, [pc, #248]	; (594 <_ZN4PFFSL11follow_pathEPNS_5_DIR_EPKc+0x13c>)
     49a:	681b      	ldr	r3, [r3, #0]
     49c:	689b      	ldr	r3, [r3, #8]
     49e:	701f      	strb	r7, [r3, #0]
     4a0:	0030      	movs	r0, r6
     4a2:	bdfe      	pop	{r1, r2, r3, r4, r5, r6, r7, pc}
     4a4:	2100      	movs	r1, #0
     4a6:	2208      	movs	r2, #8
     4a8:	468c      	mov	ip, r1
     4aa:	e059      	b.n	560 <_ZN4PFFSL11follow_pathEPNS_5_DIR_EPKc+0x108>
     4ac:	19ad      	adds	r5, r5, r6
     4ae:	2620      	movs	r6, #32
     4b0:	9a01      	ldr	r2, [sp, #4]
     4b2:	429e      	cmp	r6, r3
     4b4:	4152      	adcs	r2, r2
     4b6:	72c2      	strb	r2, [r0, #11]
     4b8:	0020      	movs	r0, r4
     4ba:	f7ff fed3 	bl	264 <_ZN4PFFSL10dir_rewindEPNS_5_DIR_E>
     4be:	1e06      	subs	r6, r0, #0
     4c0:	d127      	bne.n	512 <_ZN4PFFSL11follow_pathEPNS_5_DIR_EPKc+0xba>
     4c2:	4f34      	ldr	r7, [pc, #208]	; (594 <_ZN4PFFSL11follow_pathEPNS_5_DIR_EPKc+0x13c>)
     4c4:	683b      	ldr	r3, [r7, #0]
     4c6:	689b      	ldr	r3, [r3, #8]
     4c8:	9300      	str	r3, [sp, #0]
     4ca:	230f      	movs	r3, #15
     4cc:	8822      	ldrh	r2, [r4, #0]
     4ce:	6921      	ldr	r1, [r4, #16]
     4d0:	401a      	ands	r2, r3
     4d2:	0152      	lsls	r2, r2, #5
     4d4:	3311      	adds	r3, #17
     4d6:	9800      	ldr	r0, [sp, #0]
     4d8:	f000 faf8 	bl	acc <_ZN4PFFS10disk_readpEPhmtt>
     4dc:	2800      	cmp	r0, #0
     4de:	d137      	bne.n	550 <_ZN4PFFSL11follow_pathEPNS_5_DIR_EPKc+0xf8>
     4e0:	9b00      	ldr	r3, [sp, #0]
     4e2:	781b      	ldrb	r3, [r3, #0]
     4e4:	2b00      	cmp	r3, #0
     4e6:	d016      	beq.n	516 <_ZN4PFFSL11follow_pathEPNS_5_DIR_EPKc+0xbe>
     4e8:	2208      	movs	r2, #8
     4ea:	9b00      	ldr	r3, [sp, #0]
     4ec:	7adb      	ldrb	r3, [r3, #11]
     4ee:	4013      	ands	r3, r2
     4f0:	d109      	bne.n	506 <_ZN4PFFSL11follow_pathEPNS_5_DIR_EPKc+0xae>
     4f2:	6862      	ldr	r2, [r4, #4]
     4f4:	1e51      	subs	r1, r2, #1
     4f6:	468c      	mov	ip, r1
     4f8:	4660      	mov	r0, ip
     4fa:	9900      	ldr	r1, [sp, #0]
     4fc:	5cc9      	ldrb	r1, [r1, r3]
     4fe:	3301      	adds	r3, #1
     500:	5cc0      	ldrb	r0, [r0, r3]
     502:	4288      	cmp	r0, r1
     504:	d00e      	beq.n	524 <_ZN4PFFSL11follow_pathEPNS_5_DIR_EPKc+0xcc>
     506:	0020      	movs	r0, r4
     508:	f7ff ff36 	bl	378 <_ZN4PFFSL8dir_nextEPNS_5_DIR_E>
     50c:	2800      	cmp	r0, #0
     50e:	d0dc      	beq.n	4ca <_ZN4PFFSL11follow_pathEPNS_5_DIR_EPKc+0x72>
     510:	0006      	movs	r6, r0
     512:	2e03      	cmp	r6, #3
     514:	d1c4      	bne.n	4a0 <_ZN4PFFSL11follow_pathEPNS_5_DIR_EPKc+0x48>
     516:	6863      	ldr	r3, [r4, #4]
     518:	2603      	movs	r6, #3
     51a:	7adb      	ldrb	r3, [r3, #11]
     51c:	2b00      	cmp	r3, #0
     51e:	d1bf      	bne.n	4a0 <_ZN4PFFSL11follow_pathEPNS_5_DIR_EPKc+0x48>
     520:	2604      	movs	r6, #4
     522:	e7bd      	b.n	4a0 <_ZN4PFFSL11follow_pathEPNS_5_DIR_EPKc+0x48>
     524:	2b0b      	cmp	r3, #11
     526:	d1e7      	bne.n	4f8 <_ZN4PFFSL11follow_pathEPNS_5_DIR_EPKc+0xa0>
     528:	7ad3      	ldrb	r3, [r2, #11]
     52a:	2b00      	cmp	r3, #0
     52c:	d1b8      	bne.n	4a0 <_ZN4PFFSL11follow_pathEPNS_5_DIR_EPKc+0x48>
     52e:	683b      	ldr	r3, [r7, #0]
     530:	689b      	ldr	r3, [r3, #8]
     532:	7ada      	ldrb	r2, [r3, #11]
     534:	06d2      	lsls	r2, r2, #27
     536:	d5f3      	bpl.n	520 <_ZN4PFFSL11follow_pathEPNS_5_DIR_EPKc+0xc8>
     538:	7d59      	ldrb	r1, [r3, #21]
     53a:	7d1a      	ldrb	r2, [r3, #20]
     53c:	0209      	lsls	r1, r1, #8
     53e:	430a      	orrs	r2, r1
     540:	7ed9      	ldrb	r1, [r3, #27]
     542:	7e9b      	ldrb	r3, [r3, #26]
     544:	0209      	lsls	r1, r1, #8
     546:	0412      	lsls	r2, r2, #16
     548:	430b      	orrs	r3, r1
     54a:	4313      	orrs	r3, r2
     54c:	60a3      	str	r3, [r4, #8]
     54e:	e795      	b.n	47c <_ZN4PFFSL11follow_pathEPNS_5_DIR_EPKc+0x24>
     550:	2601      	movs	r6, #1
     552:	e7a5      	b.n	4a0 <_ZN4PFFSL11follow_pathEPNS_5_DIR_EPKc+0x48>
     554:	2a08      	cmp	r2, #8
     556:	d1a9      	bne.n	4ac <_ZN4PFFSL11follow_pathEPNS_5_DIR_EPKc+0x54>
     558:	230b      	movs	r3, #11
     55a:	0011      	movs	r1, r2
     55c:	46b4      	mov	ip, r6
     55e:	001a      	movs	r2, r3
     560:	4663      	mov	r3, ip
     562:	1c5e      	adds	r6, r3, #1
     564:	5ceb      	ldrb	r3, [r5, r3]
     566:	b2f6      	uxtb	r6, r6
     568:	2b20      	cmp	r3, #32
     56a:	d99f      	bls.n	4ac <_ZN4PFFSL11follow_pathEPNS_5_DIR_EPKc+0x54>
     56c:	2b2f      	cmp	r3, #47	; 0x2f
     56e:	d09d      	beq.n	4ac <_ZN4PFFSL11follow_pathEPNS_5_DIR_EPKc+0x54>
     570:	2b2e      	cmp	r3, #46	; 0x2e
     572:	d0ef      	beq.n	554 <_ZN4PFFSL11follow_pathEPNS_5_DIR_EPKc+0xfc>
     574:	428a      	cmp	r2, r1
     576:	d999      	bls.n	4ac <_ZN4PFFSL11follow_pathEPNS_5_DIR_EPKc+0x54>
     578:	2761      	movs	r7, #97	; 0x61
     57a:	427f      	negs	r7, r7
     57c:	46bc      	mov	ip, r7
     57e:	449c      	add	ip, r3
     580:	4667      	mov	r7, ip
     582:	2f19      	cmp	r7, #25
     584:	d801      	bhi.n	58a <_ZN4PFFSL11follow_pathEPNS_5_DIR_EPKc+0x132>
     586:	3b20      	subs	r3, #32
     588:	b2db      	uxtb	r3, r3
     58a:	1c4f      	adds	r7, r1, #1
     58c:	5443      	strb	r3, [r0, r1]
     58e:	0013      	movs	r3, r2
     590:	b2fa      	uxtb	r2, r7
     592:	e7e2      	b.n	55a <_ZN4PFFSL11follow_pathEPNS_5_DIR_EPKc+0x102>
     594:	0254      	lsls	r4, r2, #9
     596:	1000      	asrs	r0, r0, #32

00000598 <_ZN4PFFS8pf_mountEPNS_7_FATFS_E>:
_ZN4PFFS8pf_mountEPNS_7_FATFS_E():
     598:	2200      	movs	r2, #0
     59a:	b5f0      	push	{r4, r5, r6, r7, lr}
     59c:	4b4a      	ldr	r3, [pc, #296]	; (6c8 <_ZN4PFFS8pf_mountEPNS_7_FATFS_E+0x130>)
     59e:	b08b      	sub	sp, #44	; 0x2c
     5a0:	0007      	movs	r7, r0
     5a2:	601a      	str	r2, [r3, #0]
     5a4:	4290      	cmp	r0, r2
     5a6:	d018      	beq.n	5da <_ZN4PFFS8pf_mountEPNS_7_FATFS_E+0x42>
     5a8:	f000 fb2c 	bl	c04 <_ZN4PFFS15disk_initializeEv>
     5ac:	2301      	movs	r3, #1
     5ae:	4018      	ands	r0, r3
     5b0:	0004      	movs	r4, r0
     5b2:	2002      	movs	r0, #2
     5b4:	2c00      	cmp	r4, #0
     5b6:	d110      	bne.n	5da <_ZN4PFFS8pf_mountEPNS_7_FATFS_E+0x42>
     5b8:	ae01      	add	r6, sp, #4
     5ba:	0021      	movs	r1, r4
     5bc:	0030      	movs	r0, r6
     5be:	f7ff ff0b 	bl	3d8 <_ZN4PFFSL8check_fsEPhm>
     5c2:	2801      	cmp	r0, #1
     5c4:	d115      	bne.n	5f2 <_ZN4PFFS8pf_mountEPNS_7_FATFS_E+0x5a>
     5c6:	22df      	movs	r2, #223	; 0xdf
     5c8:	2310      	movs	r3, #16
     5ca:	0052      	lsls	r2, r2, #1
     5cc:	0021      	movs	r1, r4
     5ce:	0030      	movs	r0, r6
     5d0:	f000 fa7c 	bl	acc <_ZN4PFFS10disk_readpEPhmtt>
     5d4:	2800      	cmp	r0, #0
     5d6:	d002      	beq.n	5de <_ZN4PFFS8pf_mountEPNS_7_FATFS_E+0x46>
     5d8:	2001      	movs	r0, #1
     5da:	b00b      	add	sp, #44	; 0x2c
     5dc:	bdf0      	pop	{r4, r5, r6, r7, pc}
     5de:	7933      	ldrb	r3, [r6, #4]
     5e0:	2b00      	cmp	r3, #0
     5e2:	d101      	bne.n	5e8 <_ZN4PFFS8pf_mountEPNS_7_FATFS_E+0x50>
     5e4:	2007      	movs	r0, #7
     5e6:	e7f8      	b.n	5da <_ZN4PFFS8pf_mountEPNS_7_FATFS_E+0x42>
     5e8:	9c03      	ldr	r4, [sp, #12]
     5ea:	0030      	movs	r0, r6
     5ec:	0021      	movs	r1, r4
     5ee:	f7ff fef3 	bl	3d8 <_ZN4PFFSL8check_fsEPhm>
     5f2:	2803      	cmp	r0, #3
     5f4:	d0f0      	beq.n	5d8 <_ZN4PFFS8pf_mountEPNS_7_FATFS_E+0x40>
     5f6:	2800      	cmp	r0, #0
     5f8:	d1f4      	bne.n	5e4 <_ZN4PFFS8pf_mountEPNS_7_FATFS_E+0x4c>
     5fa:	2324      	movs	r3, #36	; 0x24
     5fc:	220d      	movs	r2, #13
     5fe:	0021      	movs	r1, r4
     600:	0030      	movs	r0, r6
     602:	f000 fa63 	bl	acc <_ZN4PFFS10disk_readpEPhmtt>
     606:	2800      	cmp	r0, #0
     608:	d1e6      	bne.n	5d8 <_ZN4PFFS8pf_mountEPNS_7_FATFS_E+0x40>
     60a:	7ab3      	ldrb	r3, [r6, #10]
     60c:	7a75      	ldrb	r5, [r6, #9]
     60e:	021b      	lsls	r3, r3, #8
     610:	431d      	orrs	r5, r3
     612:	d10b      	bne.n	62c <_ZN4PFFS8pf_mountEPNS_7_FATFS_E+0x94>
     614:	221b      	movs	r2, #27
     616:	446a      	add	r2, sp
     618:	7853      	ldrb	r3, [r2, #1]
     61a:	7815      	ldrb	r5, [r2, #0]
     61c:	021b      	lsls	r3, r3, #8
     61e:	432b      	orrs	r3, r5
     620:	7895      	ldrb	r5, [r2, #2]
     622:	042d      	lsls	r5, r5, #16
     624:	432b      	orrs	r3, r5
     626:	78d5      	ldrb	r5, [r2, #3]
     628:	062d      	lsls	r5, r5, #24
     62a:	431d      	orrs	r5, r3
     62c:	78f3      	ldrb	r3, [r6, #3]
     62e:	7870      	ldrb	r0, [r6, #1]
     630:	435d      	muls	r5, r3
     632:	78b3      	ldrb	r3, [r6, #2]
     634:	7831      	ldrb	r1, [r6, #0]
     636:	021b      	lsls	r3, r3, #8
     638:	4303      	orrs	r3, r0
     63a:	191c      	adds	r4, r3, r4
     63c:	613c      	str	r4, [r7, #16]
     63e:	7079      	strb	r1, [r7, #1]
     640:	7972      	ldrb	r2, [r6, #5]
     642:	7930      	ldrb	r0, [r6, #4]
     644:	0212      	lsls	r2, r2, #8
     646:	4310      	orrs	r0, r2
     648:	80b8      	strh	r0, [r7, #4]
     64a:	79f2      	ldrb	r2, [r6, #7]
     64c:	4684      	mov	ip, r0
     64e:	79b0      	ldrb	r0, [r6, #6]
     650:	0212      	lsls	r2, r2, #8
     652:	4310      	orrs	r0, r2
     654:	d10b      	bne.n	66e <_ZN4PFFS8pf_mountEPNS_7_FATFS_E+0xd6>
     656:	2617      	movs	r6, #23
     658:	446e      	add	r6, sp
     65a:	7872      	ldrb	r2, [r6, #1]
     65c:	7830      	ldrb	r0, [r6, #0]
     65e:	0212      	lsls	r2, r2, #8
     660:	4302      	orrs	r2, r0
     662:	78b0      	ldrb	r0, [r6, #2]
     664:	0400      	lsls	r0, r0, #16
     666:	4302      	orrs	r2, r0
     668:	78f0      	ldrb	r0, [r6, #3]
     66a:	0600      	lsls	r0, r0, #24
     66c:	4310      	orrs	r0, r2
     66e:	4662      	mov	r2, ip
     670:	0916      	lsrs	r6, r2, #4
     672:	199b      	adds	r3, r3, r6
     674:	195b      	adds	r3, r3, r5
     676:	1ac0      	subs	r0, r0, r3
     678:	f00c f9f4 	bl	ca64 <__udivsi3>
     67c:	4b13      	ldr	r3, [pc, #76]	; (6cc <_ZN4PFFS8pf_mountEPNS_7_FATFS_E+0x134>)
     67e:	3002      	adds	r0, #2
     680:	60f8      	str	r0, [r7, #12]
     682:	4298      	cmp	r0, r3
     684:	d919      	bls.n	6ba <_ZN4PFFS8pf_mountEPNS_7_FATFS_E+0x122>
     686:	4b12      	ldr	r3, [pc, #72]	; (6d0 <_ZN4PFFS8pf_mountEPNS_7_FATFS_E+0x138>)
     688:	4298      	cmp	r0, r3
     68a:	d91a      	bls.n	6c2 <_ZN4PFFS8pf_mountEPNS_7_FATFS_E+0x12a>
     68c:	2123      	movs	r1, #35	; 0x23
     68e:	2303      	movs	r3, #3
     690:	4469      	add	r1, sp
     692:	784a      	ldrb	r2, [r1, #1]
     694:	703b      	strb	r3, [r7, #0]
     696:	780b      	ldrb	r3, [r1, #0]
     698:	0212      	lsls	r2, r2, #8
     69a:	431a      	orrs	r2, r3
     69c:	788b      	ldrb	r3, [r1, #2]
     69e:	041b      	lsls	r3, r3, #16
     6a0:	431a      	orrs	r2, r3
     6a2:	78cb      	ldrb	r3, [r1, #3]
     6a4:	061b      	lsls	r3, r3, #24
     6a6:	4313      	orrs	r3, r2
     6a8:	2000      	movs	r0, #0
     6aa:	617b      	str	r3, [r7, #20]
     6ac:	19a4      	adds	r4, r4, r6
     6ae:	4b06      	ldr	r3, [pc, #24]	; (6c8 <_ZN4PFFS8pf_mountEPNS_7_FATFS_E+0x130>)
     6b0:	1965      	adds	r5, r4, r5
     6b2:	61bd      	str	r5, [r7, #24]
     6b4:	70b8      	strb	r0, [r7, #2]
     6b6:	601f      	str	r7, [r3, #0]
     6b8:	e78f      	b.n	5da <_ZN4PFFS8pf_mountEPNS_7_FATFS_E+0x42>
     6ba:	2301      	movs	r3, #1
     6bc:	703b      	strb	r3, [r7, #0]
     6be:	1963      	adds	r3, r4, r5
     6c0:	e7f2      	b.n	6a8 <_ZN4PFFS8pf_mountEPNS_7_FATFS_E+0x110>
     6c2:	2302      	movs	r3, #2
     6c4:	e7fa      	b.n	6bc <_ZN4PFFS8pf_mountEPNS_7_FATFS_E+0x124>
     6c6:	46c0      	nop			; (mov r8, r8)
     6c8:	0254      	lsls	r4, r2, #9
     6ca:	1000      	asrs	r0, r0, #32
     6cc:	0ff6      	lsrs	r6, r6, #31
     6ce:	0000      	movs	r0, r0
     6d0:	fff6 0000 	vaddl.u<illegal width 64>	q8, d6, d0

000006d4 <_ZN4PFFS7pf_openEPKc>:
_ZN4PFFS7pf_openEPKc():
     6d4:	b530      	push	{r4, r5, lr}
     6d6:	4b16      	ldr	r3, [pc, #88]	; (730 <_ZN4PFFS7pf_openEPKc+0x5c>)
     6d8:	0001      	movs	r1, r0
     6da:	681c      	ldr	r4, [r3, #0]
     6dc:	b091      	sub	sp, #68	; 0x44
     6de:	2006      	movs	r0, #6
     6e0:	2c00      	cmp	r4, #0
     6e2:	d020      	beq.n	726 <_ZN4PFFS7pf_openEPKc+0x52>
     6e4:	2300      	movs	r3, #0
     6e6:	70a3      	strb	r3, [r4, #2]
     6e8:	466b      	mov	r3, sp
     6ea:	ad08      	add	r5, sp, #32
     6ec:	60a5      	str	r5, [r4, #8]
     6ee:	a803      	add	r0, sp, #12
     6f0:	9304      	str	r3, [sp, #16]
     6f2:	f7ff feb1 	bl	458 <_ZN4PFFSL11follow_pathEPNS_5_DIR_EPKc>
     6f6:	2800      	cmp	r0, #0
     6f8:	d115      	bne.n	726 <_ZN4PFFS7pf_openEPKc+0x52>
     6fa:	782b      	ldrb	r3, [r5, #0]
     6fc:	2b00      	cmp	r3, #0
     6fe:	d014      	beq.n	72a <_ZN4PFFS7pf_openEPKc+0x56>
     700:	7aeb      	ldrb	r3, [r5, #11]
     702:	06db      	lsls	r3, r3, #27
     704:	d411      	bmi.n	72a <_ZN4PFFS7pf_openEPKc+0x56>
     706:	7d6a      	ldrb	r2, [r5, #21]
     708:	7d2b      	ldrb	r3, [r5, #20]
     70a:	7ee9      	ldrb	r1, [r5, #27]
     70c:	0212      	lsls	r2, r2, #8
     70e:	4313      	orrs	r3, r2
     710:	7eaa      	ldrb	r2, [r5, #26]
     712:	0209      	lsls	r1, r1, #8
     714:	041b      	lsls	r3, r3, #16
     716:	430a      	orrs	r2, r1
     718:	4313      	orrs	r3, r2
     71a:	6263      	str	r3, [r4, #36]	; 0x24
     71c:	9b0f      	ldr	r3, [sp, #60]	; 0x3c
     71e:	61e0      	str	r0, [r4, #28]
     720:	6223      	str	r3, [r4, #32]
     722:	2301      	movs	r3, #1
     724:	70a3      	strb	r3, [r4, #2]
     726:	b011      	add	sp, #68	; 0x44
     728:	bd30      	pop	{r4, r5, pc}
     72a:	2003      	movs	r0, #3
     72c:	e7fb      	b.n	726 <_ZN4PFFS7pf_openEPKc+0x52>
     72e:	46c0      	nop			; (mov r8, r8)
     730:	0254      	lsls	r4, r2, #9
     732:	1000      	asrs	r0, r0, #32

00000734 <_ZN4PFFS7pf_readEPvtPt>:
_ZN4PFFS7pf_readEPvtPt():
     734:	4b2f      	ldr	r3, [pc, #188]	; (7f4 <_ZN4PFFS7pf_readEPvtPt+0xc0>)
     736:	b5f7      	push	{r0, r1, r2, r4, r5, r6, r7, lr}
     738:	681c      	ldr	r4, [r3, #0]
     73a:	2300      	movs	r3, #0
     73c:	0007      	movs	r7, r0
     73e:	000d      	movs	r5, r1
     740:	9201      	str	r2, [sp, #4]
     742:	8013      	strh	r3, [r2, #0]
     744:	2006      	movs	r0, #6
     746:	429c      	cmp	r4, r3
     748:	d051      	beq.n	7ee <_ZN4PFFS7pf_readEPvtPt+0xba>
     74a:	78a3      	ldrb	r3, [r4, #2]
     74c:	3801      	subs	r0, #1
     74e:	07db      	lsls	r3, r3, #31
     750:	d54d      	bpl.n	7ee <_ZN4PFFS7pf_readEPvtPt+0xba>
     752:	6a23      	ldr	r3, [r4, #32]
     754:	69e2      	ldr	r2, [r4, #28]
     756:	1a9b      	subs	r3, r3, r2
     758:	4299      	cmp	r1, r3
     75a:	d900      	bls.n	75e <_ZN4PFFS7pf_readEPvtPt+0x2a>
     75c:	b29d      	uxth	r5, r3
     75e:	9700      	str	r7, [sp, #0]
     760:	2d00      	cmp	r5, #0
     762:	d045      	beq.n	7f0 <_ZN4PFFS7pf_readEPvtPt+0xbc>
     764:	69e6      	ldr	r6, [r4, #28]
     766:	05f3      	lsls	r3, r6, #23
     768:	d117      	bne.n	79a <_ZN4PFFS7pf_readEPvtPt+0x66>
     76a:	0a70      	lsrs	r0, r6, #9
     76c:	7861      	ldrb	r1, [r4, #1]
     76e:	f00c f9ff 	bl	cb70 <__aeabi_uidivmod>
     772:	2900      	cmp	r1, #0
     774:	d107      	bne.n	786 <_ZN4PFFS7pf_readEPvtPt+0x52>
     776:	2e00      	cmp	r6, #0
     778:	d132      	bne.n	7e0 <_ZN4PFFS7pf_readEPvtPt+0xac>
     77a:	6a60      	ldr	r0, [r4, #36]	; 0x24
     77c:	2801      	cmp	r0, #1
     77e:	d933      	bls.n	7e8 <_ZN4PFFS7pf_readEPvtPt+0xb4>
     780:	2300      	movs	r3, #0
     782:	62a0      	str	r0, [r4, #40]	; 0x28
     784:	70e3      	strb	r3, [r4, #3]
     786:	6aa0      	ldr	r0, [r4, #40]	; 0x28
     788:	f7ff fd5c 	bl	244 <_ZN4PFFSL10clust2sectEm>
     78c:	2800      	cmp	r0, #0
     78e:	d02b      	beq.n	7e8 <_ZN4PFFS7pf_readEPvtPt+0xb4>
     790:	78e3      	ldrb	r3, [r4, #3]
     792:	1c5a      	adds	r2, r3, #1
     794:	181b      	adds	r3, r3, r0
     796:	70e2      	strb	r2, [r4, #3]
     798:	62e3      	str	r3, [r4, #44]	; 0x2c
     79a:	69e3      	ldr	r3, [r4, #28]
     79c:	1c2e      	adds	r6, r5, #0
     79e:	05da      	lsls	r2, r3, #23
     7a0:	2380      	movs	r3, #128	; 0x80
     7a2:	0dd2      	lsrs	r2, r2, #23
     7a4:	009b      	lsls	r3, r3, #2
     7a6:	1a9b      	subs	r3, r3, r2
     7a8:	b29b      	uxth	r3, r3
     7aa:	429d      	cmp	r5, r3
     7ac:	d900      	bls.n	7b0 <_ZN4PFFS7pf_readEPvtPt+0x7c>
     7ae:	1c1e      	adds	r6, r3, #0
     7b0:	b2b6      	uxth	r6, r6
     7b2:	1e38      	subs	r0, r7, #0
     7b4:	d000      	beq.n	7b8 <_ZN4PFFS7pf_readEPvtPt+0x84>
     7b6:	9800      	ldr	r0, [sp, #0]
     7b8:	0033      	movs	r3, r6
     7ba:	6ae1      	ldr	r1, [r4, #44]	; 0x2c
     7bc:	f000 f986 	bl	acc <_ZN4PFFS10disk_readpEPhmtt>
     7c0:	2800      	cmp	r0, #0
     7c2:	d111      	bne.n	7e8 <_ZN4PFFS7pf_readEPvtPt+0xb4>
     7c4:	69e3      	ldr	r3, [r4, #28]
     7c6:	1bad      	subs	r5, r5, r6
     7c8:	199b      	adds	r3, r3, r6
     7ca:	61e3      	str	r3, [r4, #28]
     7cc:	9b00      	ldr	r3, [sp, #0]
     7ce:	b2ad      	uxth	r5, r5
     7d0:	199b      	adds	r3, r3, r6
     7d2:	9300      	str	r3, [sp, #0]
     7d4:	9b01      	ldr	r3, [sp, #4]
     7d6:	881b      	ldrh	r3, [r3, #0]
     7d8:	18f6      	adds	r6, r6, r3
     7da:	9b01      	ldr	r3, [sp, #4]
     7dc:	801e      	strh	r6, [r3, #0]
     7de:	e7bf      	b.n	760 <_ZN4PFFS7pf_readEPvtPt+0x2c>
     7e0:	6aa0      	ldr	r0, [r4, #40]	; 0x28
     7e2:	f7ff fd61 	bl	2a8 <_ZN4PFFSL7get_fatEm>
     7e6:	e7c9      	b.n	77c <_ZN4PFFS7pf_readEPvtPt+0x48>
     7e8:	2300      	movs	r3, #0
     7ea:	2001      	movs	r0, #1
     7ec:	70a3      	strb	r3, [r4, #2]
     7ee:	bdfe      	pop	{r1, r2, r3, r4, r5, r6, r7, pc}
     7f0:	0028      	movs	r0, r5
     7f2:	e7fc      	b.n	7ee <_ZN4PFFS7pf_readEPvtPt+0xba>
     7f4:	0254      	lsls	r4, r2, #9
     7f6:	1000      	asrs	r0, r0, #32

000007f8 <_ZN4PFFS8pf_lseekEm>:
_ZN4PFFS8pf_lseekEm():
     7f8:	4b29      	ldr	r3, [pc, #164]	; (8a0 <_ZN4PFFS8pf_lseekEm+0xa8>)
     7fa:	b5f7      	push	{r0, r1, r2, r4, r5, r6, r7, lr}
     7fc:	681c      	ldr	r4, [r3, #0]
     7fe:	2306      	movs	r3, #6
     800:	2c00      	cmp	r4, #0
     802:	d00d      	beq.n	820 <_ZN4PFFS8pf_lseekEm+0x28>
     804:	78a2      	ldrb	r2, [r4, #2]
     806:	3b01      	subs	r3, #1
     808:	07d2      	lsls	r2, r2, #31
     80a:	d509      	bpl.n	820 <_ZN4PFFS8pf_lseekEm+0x28>
     80c:	6a25      	ldr	r5, [r4, #32]
     80e:	4285      	cmp	r5, r0
     810:	d900      	bls.n	814 <_ZN4PFFS8pf_lseekEm+0x1c>
     812:	0005      	movs	r5, r0
     814:	2200      	movs	r2, #0
     816:	69e7      	ldr	r7, [r4, #28]
     818:	61e2      	str	r2, [r4, #28]
     81a:	4295      	cmp	r5, r2
     81c:	d102      	bne.n	824 <_ZN4PFFS8pf_lseekEm+0x2c>
     81e:	2300      	movs	r3, #0
     820:	0018      	movs	r0, r3
     822:	bdfe      	pop	{r1, r2, r3, r4, r5, r6, r7, pc}
     824:	7866      	ldrb	r6, [r4, #1]
     826:	0276      	lsls	r6, r6, #9
     828:	2f00      	cmp	r7, #0
     82a:	d020      	beq.n	86e <_ZN4PFFS8pf_lseekEm+0x76>
     82c:	0031      	movs	r1, r6
     82e:	1e68      	subs	r0, r5, #1
     830:	f00c f918 	bl	ca64 <__udivsi3>
     834:	3f01      	subs	r7, #1
     836:	9001      	str	r0, [sp, #4]
     838:	0031      	movs	r1, r6
     83a:	0038      	movs	r0, r7
     83c:	f00c f912 	bl	ca64 <__udivsi3>
     840:	9b01      	ldr	r3, [sp, #4]
     842:	4283      	cmp	r3, r0
     844:	d313      	bcc.n	86e <_ZN4PFFS8pf_lseekEm+0x76>
     846:	4273      	negs	r3, r6
     848:	403b      	ands	r3, r7
     84a:	6aa0      	ldr	r0, [r4, #40]	; 0x28
     84c:	61e3      	str	r3, [r4, #28]
     84e:	1aed      	subs	r5, r5, r3
     850:	42b5      	cmp	r5, r6
     852:	d90f      	bls.n	874 <_ZN4PFFS8pf_lseekEm+0x7c>
     854:	f7ff fd28 	bl	2a8 <_ZN4PFFSL7get_fatEm>
     858:	2801      	cmp	r0, #1
     85a:	d91d      	bls.n	898 <_ZN4PFFS8pf_lseekEm+0xa0>
     85c:	68e3      	ldr	r3, [r4, #12]
     85e:	4283      	cmp	r3, r0
     860:	d91a      	bls.n	898 <_ZN4PFFS8pf_lseekEm+0xa0>
     862:	69e3      	ldr	r3, [r4, #28]
     864:	62a0      	str	r0, [r4, #40]	; 0x28
     866:	199b      	adds	r3, r3, r6
     868:	61e3      	str	r3, [r4, #28]
     86a:	1bad      	subs	r5, r5, r6
     86c:	e7f0      	b.n	850 <_ZN4PFFS8pf_lseekEm+0x58>
     86e:	6a60      	ldr	r0, [r4, #36]	; 0x24
     870:	62a0      	str	r0, [r4, #40]	; 0x28
     872:	e7ed      	b.n	850 <_ZN4PFFS8pf_lseekEm+0x58>
     874:	69e3      	ldr	r3, [r4, #28]
     876:	195b      	adds	r3, r3, r5
     878:	61e3      	str	r3, [r4, #28]
     87a:	f7ff fce3 	bl	244 <_ZN4PFFSL10clust2sectEm>
     87e:	2800      	cmp	r0, #0
     880:	d00a      	beq.n	898 <_ZN4PFFS8pf_lseekEm+0xa0>
     882:	0a6b      	lsrs	r3, r5, #9
     884:	b2da      	uxtb	r2, r3
     886:	05ed      	lsls	r5, r5, #23
     888:	d101      	bne.n	88e <_ZN4PFFS8pf_lseekEm+0x96>
     88a:	70e2      	strb	r2, [r4, #3]
     88c:	e7c7      	b.n	81e <_ZN4PFFS8pf_lseekEm+0x26>
     88e:	3201      	adds	r2, #1
     890:	181b      	adds	r3, r3, r0
     892:	70e2      	strb	r2, [r4, #3]
     894:	62e3      	str	r3, [r4, #44]	; 0x2c
     896:	e7c2      	b.n	81e <_ZN4PFFS8pf_lseekEm+0x26>
     898:	2300      	movs	r3, #0
     89a:	70a3      	strb	r3, [r4, #2]
     89c:	3301      	adds	r3, #1
     89e:	e7bf      	b.n	820 <_ZN4PFFS8pf_lseekEm+0x28>
     8a0:	0254      	lsls	r4, r2, #9
     8a2:	1000      	asrs	r0, r0, #32

000008a4 <_ZN4PFFS10pf_opendirEPNS_5_DIR_EPKc>:
_ZN4PFFS10pf_opendirEPNS_5_DIR_EPKc():
     8a4:	b530      	push	{r4, r5, lr}
     8a6:	4b15      	ldr	r3, [pc, #84]	; (8fc <_ZN4PFFS10pf_opendirEPNS_5_DIR_EPKc+0x58>)
     8a8:	0004      	movs	r4, r0
     8aa:	681b      	ldr	r3, [r3, #0]
     8ac:	b08d      	sub	sp, #52	; 0x34
     8ae:	2006      	movs	r0, #6
     8b0:	2b00      	cmp	r3, #0
     8b2:	d00f      	beq.n	8d4 <_ZN4PFFS10pf_opendirEPNS_5_DIR_EPKc+0x30>
     8b4:	ad04      	add	r5, sp, #16
     8b6:	609d      	str	r5, [r3, #8]
     8b8:	ab01      	add	r3, sp, #4
     8ba:	6063      	str	r3, [r4, #4]
     8bc:	0020      	movs	r0, r4
     8be:	f7ff fdcb 	bl	458 <_ZN4PFFSL11follow_pathEPNS_5_DIR_EPKc>
     8c2:	2800      	cmp	r0, #0
     8c4:	d116      	bne.n	8f4 <_ZN4PFFS10pf_opendirEPNS_5_DIR_EPKc+0x50>
     8c6:	782b      	ldrb	r3, [r5, #0]
     8c8:	2b00      	cmp	r3, #0
     8ca:	d010      	beq.n	8ee <_ZN4PFFS10pf_opendirEPNS_5_DIR_EPKc+0x4a>
     8cc:	7aeb      	ldrb	r3, [r5, #11]
     8ce:	06db      	lsls	r3, r3, #27
     8d0:	d402      	bmi.n	8d8 <_ZN4PFFS10pf_opendirEPNS_5_DIR_EPKc+0x34>
     8d2:	2004      	movs	r0, #4
     8d4:	b00d      	add	sp, #52	; 0x34
     8d6:	bd30      	pop	{r4, r5, pc}
     8d8:	7d6a      	ldrb	r2, [r5, #21]
     8da:	7d2b      	ldrb	r3, [r5, #20]
     8dc:	0212      	lsls	r2, r2, #8
     8de:	7ee9      	ldrb	r1, [r5, #27]
     8e0:	4313      	orrs	r3, r2
     8e2:	7eaa      	ldrb	r2, [r5, #26]
     8e4:	0209      	lsls	r1, r1, #8
     8e6:	041b      	lsls	r3, r3, #16
     8e8:	430a      	orrs	r2, r1
     8ea:	4313      	orrs	r3, r2
     8ec:	60a3      	str	r3, [r4, #8]
     8ee:	0020      	movs	r0, r4
     8f0:	f7ff fcb8 	bl	264 <_ZN4PFFSL10dir_rewindEPNS_5_DIR_E>
     8f4:	2803      	cmp	r0, #3
     8f6:	d1ed      	bne.n	8d4 <_ZN4PFFS10pf_opendirEPNS_5_DIR_EPKc+0x30>
     8f8:	e7eb      	b.n	8d2 <_ZN4PFFS10pf_opendirEPNS_5_DIR_EPKc+0x2e>
     8fa:	46c0      	nop			; (mov r8, r8)
     8fc:	0254      	lsls	r4, r2, #9
     8fe:	1000      	asrs	r0, r0, #32

00000900 <us_ticker_init>:
us_ticker_init():
     900:	b570      	push	{r4, r5, r6, lr}
     902:	4b10      	ldr	r3, [pc, #64]	; (944 <us_ticker_init+0x44>)
     904:	781a      	ldrb	r2, [r3, #0]
     906:	2a00      	cmp	r2, #0
     908:	d11a      	bne.n	940 <us_ticker_init+0x40>
     90a:	2501      	movs	r5, #1
     90c:	701d      	strb	r5, [r3, #0]
     90e:	2380      	movs	r3, #128	; 0x80
     910:	4a0d      	ldr	r2, [pc, #52]	; (948 <us_ticker_init+0x48>)
     912:	00db      	lsls	r3, r3, #3
     914:	6fd1      	ldr	r1, [r2, #124]	; 0x7c
     916:	4c0d      	ldr	r4, [pc, #52]	; (94c <us_ticker_init+0x4c>)
     918:	430b      	orrs	r3, r1
     91a:	67d3      	str	r3, [r2, #124]	; 0x7c
     91c:	4b0c      	ldr	r3, [pc, #48]	; (950 <us_ticker_init+0x50>)
     91e:	490d      	ldr	r1, [pc, #52]	; (954 <us_ticker_init+0x54>)
     920:	6818      	ldr	r0, [r3, #0]
     922:	2302      	movs	r3, #2
     924:	6063      	str	r3, [r4, #4]
     926:	f00c f89d 	bl	ca64 <__udivsi3>
     92a:	3801      	subs	r0, #1
     92c:	60e0      	str	r0, [r4, #12]
     92e:	490a      	ldr	r1, [pc, #40]	; (958 <us_ticker_init+0x58>)
     930:	6065      	str	r5, [r4, #4]
     932:	2013      	movs	r0, #19
     934:	f000 fe4a 	bl	15cc <NVIC_SetVector>
     938:	2280      	movs	r2, #128	; 0x80
     93a:	4b08      	ldr	r3, [pc, #32]	; (95c <us_ticker_init+0x5c>)
     93c:	0312      	lsls	r2, r2, #12
     93e:	601a      	str	r2, [r3, #0]
     940:	bd70      	pop	{r4, r5, r6, pc}
     942:	46c0      	nop			; (mov r8, r8)
     944:	0258      	lsls	r0, r3, #9
     946:	1000      	asrs	r0, r0, #32
     948:	8004      	strh	r4, [r0, #0]
     94a:	4004      	ands	r4, r0
     94c:	8000      	strh	r0, [r0, #0]
     94e:	4001      	ands	r1, r0
     950:	0104      	lsls	r4, r0, #4
     952:	1000      	asrs	r0, r0, #32
     954:	4240      	negs	r0, r0
     956:	000f      	movs	r7, r1
     958:	34e9      	adds	r4, #233	; 0xe9
     95a:	0000      	movs	r0, r0
     95c:	e100      	b.n	b60 <_ZN4PFFS10disk_readpEPhmtt+0x94>
     95e:	e000      	b.n	962 <us_ticker_read+0x2>

00000960 <us_ticker_read>:
us_ticker_read():
     960:	b510      	push	{r4, lr}
     962:	4b04      	ldr	r3, [pc, #16]	; (974 <us_ticker_read+0x14>)
     964:	781b      	ldrb	r3, [r3, #0]
     966:	2b00      	cmp	r3, #0
     968:	d101      	bne.n	96e <us_ticker_read+0xe>
     96a:	f7ff ffc9 	bl	900 <us_ticker_init>
     96e:	4b02      	ldr	r3, [pc, #8]	; (978 <us_ticker_read+0x18>)
     970:	6898      	ldr	r0, [r3, #8]
     972:	bd10      	pop	{r4, pc}
     974:	0258      	lsls	r0, r3, #9
     976:	1000      	asrs	r0, r0, #32
     978:	8000      	strh	r0, [r0, #0]
     97a:	4001      	ands	r1, r0

0000097c <us_ticker_set_interrupt>:
us_ticker_set_interrupt():
     97c:	2201      	movs	r2, #1
     97e:	4b03      	ldr	r3, [pc, #12]	; (98c <us_ticker_set_interrupt+0x10>)
     980:	6198      	str	r0, [r3, #24]
     982:	6959      	ldr	r1, [r3, #20]
     984:	430a      	orrs	r2, r1
     986:	615a      	str	r2, [r3, #20]
     988:	4770      	bx	lr
     98a:	46c0      	nop			; (mov r8, r8)
     98c:	8000      	strh	r0, [r0, #0]
     98e:	4001      	ands	r1, r0

00000990 <us_ticker_disable_interrupt>:
us_ticker_disable_interrupt():
     990:	2101      	movs	r1, #1
     992:	4a02      	ldr	r2, [pc, #8]	; (99c <us_ticker_disable_interrupt+0xc>)
     994:	6953      	ldr	r3, [r2, #20]
     996:	438b      	bics	r3, r1
     998:	6153      	str	r3, [r2, #20]
     99a:	4770      	bx	lr
     99c:	8000      	strh	r0, [r0, #0]
     99e:	4001      	ands	r1, r0

000009a0 <us_ticker_clear_interrupt>:
us_ticker_clear_interrupt():
     9a0:	2201      	movs	r2, #1
     9a2:	4b01      	ldr	r3, [pc, #4]	; (9a8 <us_ticker_clear_interrupt+0x8>)
     9a4:	601a      	str	r2, [r3, #0]
     9a6:	4770      	bx	lr
     9a8:	8000      	strh	r0, [r0, #0]
     9aa:	4001      	ands	r1, r0

000009ac <NMI_Handler>:
NMI_Handler():
     9ac:	4770      	bx	lr

000009ae <ADCA_IRQHandler>:
ADCA_IRQHandler():
     9ae:	4770      	bx	lr

000009b0 <HardFault_Handler>:
HardFault_Handler():
     9b0:	4770      	bx	lr

000009b2 <SVC_Handler>:
SVC_Handler():
     9b2:	4770      	bx	lr

000009b4 <PendSV_Handler>:
PendSV_Handler():
     9b4:	4770      	bx	lr

000009b6 <data_init>:
data_init():
     9b6:	2300      	movs	r3, #0
     9b8:	b530      	push	{r4, r5, lr}
     9ba:	185c      	adds	r4, r3, r1
     9bc:	181d      	adds	r5, r3, r0
     9be:	4293      	cmp	r3, r2
     9c0:	d203      	bcs.n	9ca <data_init+0x14>
     9c2:	682d      	ldr	r5, [r5, #0]
     9c4:	3304      	adds	r3, #4
     9c6:	6025      	str	r5, [r4, #0]
     9c8:	e7f7      	b.n	9ba <data_init+0x4>
     9ca:	bd30      	pop	{r4, r5, pc}

000009cc <bss_init>:
bss_init():
     9cc:	2300      	movs	r3, #0
     9ce:	b510      	push	{r4, lr}
     9d0:	001c      	movs	r4, r3
     9d2:	181a      	adds	r2, r3, r0
     9d4:	428b      	cmp	r3, r1
     9d6:	d202      	bcs.n	9de <bss_init+0x12>
     9d8:	6014      	str	r4, [r2, #0]
     9da:	3304      	adds	r3, #4
     9dc:	e7f9      	b.n	9d2 <bss_init+0x6>
     9de:	bd10      	pop	{r4, pc}

000009e0 <__aeabi_atexit>:
__aeabi_atexit():
     9e0:	2000      	movs	r0, #0
     9e2:	4770      	bx	lr

000009e4 <_ZdlPv>:
_ZdlPv():
     9e4:	b510      	push	{r4, lr}
     9e6:	f00b f86d 	bl	bac4 <free>
     9ea:	bd10      	pop	{r4, pc}

000009ec <_ZN4PFFS7rcv_spiEv>:
_ZN4PFFS7rcv_spiEv():
     9ec:	4b07      	ldr	r3, [pc, #28]	; (a0c <_ZN4PFFS7rcv_spiEv+0x20>)
     9ee:	2202      	movs	r2, #2
     9f0:	0018      	movs	r0, r3
     9f2:	7819      	ldrb	r1, [r3, #0]
     9f4:	4211      	tst	r1, r2
     9f6:	d0fc      	beq.n	9f2 <_ZN4PFFS7rcv_spiEv+0x6>
     9f8:	22ff      	movs	r2, #255	; 0xff
     9fa:	4b05      	ldr	r3, [pc, #20]	; (a10 <_ZN4PFFS7rcv_spiEv+0x24>)
     9fc:	701a      	strb	r2, [r3, #0]
     9fe:	3afb      	subs	r2, #251	; 0xfb
     a00:	7801      	ldrb	r1, [r0, #0]
     a02:	4211      	tst	r1, r2
     a04:	d0fc      	beq.n	a00 <_ZN4PFFS7rcv_spiEv+0x14>
     a06:	7818      	ldrb	r0, [r3, #0]
     a08:	b2c0      	uxtb	r0, r0
     a0a:	4770      	bx	lr
     a0c:	000c      	movs	r4, r1
     a0e:	4004      	ands	r4, r0
     a10:	0008      	movs	r0, r1
     a12:	4004      	ands	r4, r0

00000a14 <_ZN4PFFS7ign_spiEv>:
_ZN4PFFS7ign_spiEv():
     a14:	4b07      	ldr	r3, [pc, #28]	; (a34 <_ZN4PFFS7ign_spiEv+0x20>)
     a16:	2202      	movs	r2, #2
     a18:	0018      	movs	r0, r3
     a1a:	7819      	ldrb	r1, [r3, #0]
     a1c:	4211      	tst	r1, r2
     a1e:	d0fc      	beq.n	a1a <_ZN4PFFS7ign_spiEv+0x6>
     a20:	22ff      	movs	r2, #255	; 0xff
     a22:	4b05      	ldr	r3, [pc, #20]	; (a38 <_ZN4PFFS7ign_spiEv+0x24>)
     a24:	701a      	strb	r2, [r3, #0]
     a26:	3afb      	subs	r2, #251	; 0xfb
     a28:	7801      	ldrb	r1, [r0, #0]
     a2a:	4211      	tst	r1, r2
     a2c:	d0fc      	beq.n	a28 <_ZN4PFFS7ign_spiEv+0x14>
     a2e:	7818      	ldrb	r0, [r3, #0]
     a30:	b2c0      	uxtb	r0, r0
     a32:	4770      	bx	lr
     a34:	000c      	movs	r4, r1
     a36:	4004      	ands	r4, r0
     a38:	0008      	movs	r0, r1
     a3a:	4004      	ands	r4, r0

00000a3c <_ZN4PFFS8xmit_spiEh>:
_ZN4PFFS8xmit_spiEh():
     a3c:	b510      	push	{r4, lr}
     a3e:	0001      	movs	r1, r0
     a40:	4801      	ldr	r0, [pc, #4]	; (a48 <_ZN4PFFS8xmit_spiEh+0xc>)
     a42:	f002 fe8f 	bl	3764 <_ZN4mbed3SPI5writeEi>
     a46:	bd10      	pop	{r4, pc}
     a48:	1278      	asrs	r0, r7, #9
     a4a:	1000      	asrs	r0, r0, #32

00000a4c <_ZN4PFFSL8send_cmdEhm>:
_ZN4PFFSL8send_cmdEhm():
     a4c:	b5f8      	push	{r3, r4, r5, r6, r7, lr}
     a4e:	b243      	sxtb	r3, r0
     a50:	0004      	movs	r4, r0
     a52:	000d      	movs	r5, r1
     a54:	2b00      	cmp	r3, #0
     a56:	da07      	bge.n	a68 <_ZN4PFFSL8send_cmdEhm+0x1c>
     a58:	2100      	movs	r1, #0
     a5a:	2077      	movs	r0, #119	; 0x77
     a5c:	f7ff fff6 	bl	a4c <_ZN4PFFSL8send_cmdEhm>
     a60:	2801      	cmp	r0, #1
     a62:	d831      	bhi.n	ac8 <_ZN4PFFSL8send_cmdEhm+0x7c>
     a64:	237f      	movs	r3, #127	; 0x7f
     a66:	401c      	ands	r4, r3
     a68:	26a0      	movs	r6, #160	; 0xa0
     a6a:	2388      	movs	r3, #136	; 0x88
     a6c:	2780      	movs	r7, #128	; 0x80
     a6e:	019b      	lsls	r3, r3, #6
     a70:	0636      	lsls	r6, r6, #24
     a72:	50f7      	str	r7, [r6, r3]
     a74:	f7ff ffba 	bl	9ec <_ZN4PFFS7rcv_spiEv>
     a78:	238a      	movs	r3, #138	; 0x8a
     a7a:	019b      	lsls	r3, r3, #6
     a7c:	50f7      	str	r7, [r6, r3]
     a7e:	f7ff ffb5 	bl	9ec <_ZN4PFFS7rcv_spiEv>
     a82:	0020      	movs	r0, r4
     a84:	f7ff ffda 	bl	a3c <_ZN4PFFS8xmit_spiEh>
     a88:	0e28      	lsrs	r0, r5, #24
     a8a:	f7ff ffd7 	bl	a3c <_ZN4PFFS8xmit_spiEh>
     a8e:	0c28      	lsrs	r0, r5, #16
     a90:	b2c0      	uxtb	r0, r0
     a92:	f7ff ffd3 	bl	a3c <_ZN4PFFS8xmit_spiEh>
     a96:	0a28      	lsrs	r0, r5, #8
     a98:	b2c0      	uxtb	r0, r0
     a9a:	f7ff ffcf 	bl	a3c <_ZN4PFFS8xmit_spiEh>
     a9e:	b2e8      	uxtb	r0, r5
     aa0:	f7ff ffcc 	bl	a3c <_ZN4PFFS8xmit_spiEh>
     aa4:	2095      	movs	r0, #149	; 0x95
     aa6:	2c40      	cmp	r4, #64	; 0x40
     aa8:	d003      	beq.n	ab2 <_ZN4PFFSL8send_cmdEhm+0x66>
     aaa:	3894      	subs	r0, #148	; 0x94
     aac:	2c48      	cmp	r4, #72	; 0x48
     aae:	d100      	bne.n	ab2 <_ZN4PFFSL8send_cmdEhm+0x66>
     ab0:	3086      	adds	r0, #134	; 0x86
     ab2:	f7ff ffc3 	bl	a3c <_ZN4PFFS8xmit_spiEh>
     ab6:	240a      	movs	r4, #10
     ab8:	f7ff ff98 	bl	9ec <_ZN4PFFS7rcv_spiEv>
     abc:	0603      	lsls	r3, r0, #24
     abe:	d503      	bpl.n	ac8 <_ZN4PFFSL8send_cmdEhm+0x7c>
     ac0:	3c01      	subs	r4, #1
     ac2:	b2e4      	uxtb	r4, r4
     ac4:	2c00      	cmp	r4, #0
     ac6:	d1f7      	bne.n	ab8 <_ZN4PFFSL8send_cmdEhm+0x6c>
     ac8:	bdf8      	pop	{r3, r4, r5, r6, r7, pc}
     aca:	ffff  	vsli.64	<illegal reg q13.5>, q12, #63	; 0x3f

00000acc <_ZN4PFFS10disk_readpEPhmtt>:
_ZN4PFFS10disk_readpEPhmtt():
     acc:	b5f8      	push	{r3, r4, r5, r6, r7, lr}
     ace:	001d      	movs	r5, r3
     ad0:	4b2d      	ldr	r3, [pc, #180]	; (b88 <_ZN4PFFS10disk_readpEPhmtt+0xbc>)
     ad2:	0006      	movs	r6, r0
     ad4:	781b      	ldrb	r3, [r3, #0]
     ad6:	0017      	movs	r7, r2
     ad8:	071b      	lsls	r3, r3, #28
     ada:	d400      	bmi.n	ade <_ZN4PFFS10disk_readpEPhmtt+0x12>
     adc:	0249      	lsls	r1, r1, #9
     ade:	2051      	movs	r0, #81	; 0x51
     ae0:	f7ff ffb4 	bl	a4c <_ZN4PFFSL8send_cmdEhm>
     ae4:	2800      	cmp	r0, #0
     ae6:	d108      	bne.n	afa <_ZN4PFFS10disk_readpEPhmtt+0x2e>
     ae8:	4c28      	ldr	r4, [pc, #160]	; (b8c <_ZN4PFFS10disk_readpEPhmtt+0xc0>)
     aea:	f7ff ff7f 	bl	9ec <_ZN4PFFS7rcv_spiEv>
     aee:	28ff      	cmp	r0, #255	; 0xff
     af0:	d105      	bne.n	afe <_ZN4PFFS10disk_readpEPhmtt+0x32>
     af2:	3c01      	subs	r4, #1
     af4:	b2a4      	uxth	r4, r4
     af6:	2c00      	cmp	r4, #0
     af8:	d1f7      	bne.n	aea <_ZN4PFFS10disk_readpEPhmtt+0x1e>
     afa:	2401      	movs	r4, #1
     afc:	e03a      	b.n	b74 <_ZN4PFFS10disk_readpEPhmtt+0xa8>
     afe:	28fe      	cmp	r0, #254	; 0xfe
     b00:	d1fb      	bne.n	afa <_ZN4PFFS10disk_readpEPhmtt+0x2e>
     b02:	4c23      	ldr	r4, [pc, #140]	; (b90 <_ZN4PFFS10disk_readpEPhmtt+0xc4>)
     b04:	1b64      	subs	r4, r4, r5
     b06:	1be4      	subs	r4, r4, r7
     b08:	b2a4      	uxth	r4, r4
     b0a:	2f00      	cmp	r7, #0
     b0c:	d004      	beq.n	b18 <_ZN4PFFS10disk_readpEPhmtt+0x4c>
     b0e:	3f01      	subs	r7, #1
     b10:	f7ff ff80 	bl	a14 <_ZN4PFFS7ign_spiEv>
     b14:	b2bf      	uxth	r7, r7
     b16:	e7f8      	b.n	b0a <_ZN4PFFS10disk_readpEPhmtt+0x3e>
     b18:	4b1e      	ldr	r3, [pc, #120]	; (b94 <_ZN4PFFS10disk_readpEPhmtt+0xc8>)
     b1a:	2e00      	cmp	r6, #0
     b1c:	d110      	bne.n	b40 <_ZN4PFFS10disk_readpEPhmtt+0x74>
     b1e:	2102      	movs	r1, #2
     b20:	20ff      	movs	r0, #255	; 0xff
     b22:	4a1d      	ldr	r2, [pc, #116]	; (b98 <_ZN4PFFS10disk_readpEPhmtt+0xcc>)
     b24:	3604      	adds	r6, #4
     b26:	781f      	ldrb	r7, [r3, #0]
     b28:	420f      	tst	r7, r1
     b2a:	d0fc      	beq.n	b26 <_ZN4PFFS10disk_readpEPhmtt+0x5a>
     b2c:	7010      	strb	r0, [r2, #0]
     b2e:	781f      	ldrb	r7, [r3, #0]
     b30:	4237      	tst	r7, r6
     b32:	d0fc      	beq.n	b2e <_ZN4PFFS10disk_readpEPhmtt+0x62>
     b34:	3d01      	subs	r5, #1
     b36:	b2ad      	uxth	r5, r5
     b38:	7817      	ldrb	r7, [r2, #0]
     b3a:	2d00      	cmp	r5, #0
     b3c:	d1f3      	bne.n	b26 <_ZN4PFFS10disk_readpEPhmtt+0x5a>
     b3e:	e013      	b.n	b68 <_ZN4PFFS10disk_readpEPhmtt+0x9c>
     b40:	0030      	movs	r0, r6
     b42:	2704      	movs	r7, #4
     b44:	26ff      	movs	r6, #255	; 0xff
     b46:	1945      	adds	r5, r0, r5
     b48:	b2ad      	uxth	r5, r5
     b4a:	2102      	movs	r1, #2
     b4c:	781a      	ldrb	r2, [r3, #0]
     b4e:	420a      	tst	r2, r1
     b50:	d0fb      	beq.n	b4a <_ZN4PFFS10disk_readpEPhmtt+0x7e>
     b52:	4a11      	ldr	r2, [pc, #68]	; (b98 <_ZN4PFFS10disk_readpEPhmtt+0xcc>)
     b54:	7016      	strb	r6, [r2, #0]
     b56:	7819      	ldrb	r1, [r3, #0]
     b58:	4239      	tst	r1, r7
     b5a:	d0fc      	beq.n	b56 <_ZN4PFFS10disk_readpEPhmtt+0x8a>
     b5c:	7812      	ldrb	r2, [r2, #0]
     b5e:	7002      	strb	r2, [r0, #0]
     b60:	3001      	adds	r0, #1
     b62:	b282      	uxth	r2, r0
     b64:	42aa      	cmp	r2, r5
     b66:	d1f0      	bne.n	b4a <_ZN4PFFS10disk_readpEPhmtt+0x7e>
     b68:	3c01      	subs	r4, #1
     b6a:	b2a4      	uxth	r4, r4
     b6c:	f7ff ff52 	bl	a14 <_ZN4PFFS7ign_spiEv>
     b70:	2c00      	cmp	r4, #0
     b72:	d1f9      	bne.n	b68 <_ZN4PFFS10disk_readpEPhmtt+0x9c>
     b74:	22a0      	movs	r2, #160	; 0xa0
     b76:	2388      	movs	r3, #136	; 0x88
     b78:	2180      	movs	r1, #128	; 0x80
     b7a:	0612      	lsls	r2, r2, #24
     b7c:	019b      	lsls	r3, r3, #6
     b7e:	50d1      	str	r1, [r2, r3]
     b80:	f7ff ff34 	bl	9ec <_ZN4PFFS7rcv_spiEv>
     b84:	0020      	movs	r0, r4
     b86:	bdf8      	pop	{r3, r4, r5, r6, r7, pc}
     b88:	0259      	lsls	r1, r3, #9
     b8a:	1000      	asrs	r0, r0, #32
     b8c:	7530      	strb	r0, [r6, #20]
     b8e:	0000      	movs	r0, r0
     b90:	0202      	lsls	r2, r0, #8
     b92:	0000      	movs	r0, r0
     b94:	000c      	movs	r4, r1
     b96:	4004      	ands	r4, r0
     b98:	0008      	movs	r0, r1
     b9a:	4004      	ands	r4, r0

00000b9c <_ZN4PFFS11disk_writepEPKhm.part.1>:
_ZN4PFFS11disk_writepEPKhm.part.1():
     b9c:	4b16      	ldr	r3, [pc, #88]	; (bf8 <_ZN4PFFS11disk_writepEPKhm.part.1+0x5c>)
     b9e:	b510      	push	{r4, lr}
     ba0:	881c      	ldrh	r4, [r3, #0]
     ba2:	3402      	adds	r4, #2
     ba4:	b2a4      	uxth	r4, r4
     ba6:	3c01      	subs	r4, #1
     ba8:	4b14      	ldr	r3, [pc, #80]	; (bfc <_ZN4PFFS11disk_writepEPKhm.part.1+0x60>)
     baa:	b2a4      	uxth	r4, r4
     bac:	429c      	cmp	r4, r3
     bae:	d003      	beq.n	bb8 <_ZN4PFFS11disk_writepEPKhm.part.1+0x1c>
     bb0:	2000      	movs	r0, #0
     bb2:	f7ff ff43 	bl	a3c <_ZN4PFFS8xmit_spiEh>
     bb6:	e7f6      	b.n	ba6 <_ZN4PFFS11disk_writepEPKhm.part.1+0xa>
     bb8:	f7ff ff18 	bl	9ec <_ZN4PFFS7rcv_spiEv>
     bbc:	231f      	movs	r3, #31
     bbe:	4018      	ands	r0, r3
     bc0:	2805      	cmp	r0, #5
     bc2:	d00a      	beq.n	bda <_ZN4PFFS11disk_writepEPKhm.part.1+0x3e>
     bc4:	2401      	movs	r4, #1
     bc6:	22a0      	movs	r2, #160	; 0xa0
     bc8:	2388      	movs	r3, #136	; 0x88
     bca:	2180      	movs	r1, #128	; 0x80
     bcc:	0612      	lsls	r2, r2, #24
     bce:	019b      	lsls	r3, r3, #6
     bd0:	50d1      	str	r1, [r2, r3]
     bd2:	f7ff ff0b 	bl	9ec <_ZN4PFFS7rcv_spiEv>
     bd6:	0020      	movs	r0, r4
     bd8:	bd10      	pop	{r4, pc}
     bda:	4c09      	ldr	r4, [pc, #36]	; (c00 <_ZN4PFFS11disk_writepEPKhm.part.1+0x64>)
     bdc:	f7ff ff06 	bl	9ec <_ZN4PFFS7rcv_spiEv>
     be0:	28ff      	cmp	r0, #255	; 0xff
     be2:	d004      	beq.n	bee <_ZN4PFFS11disk_writepEPKhm.part.1+0x52>
     be4:	2c00      	cmp	r4, #0
     be6:	d0ed      	beq.n	bc4 <_ZN4PFFS11disk_writepEPKhm.part.1+0x28>
     be8:	3c01      	subs	r4, #1
     bea:	b2a4      	uxth	r4, r4
     bec:	e7f6      	b.n	bdc <_ZN4PFFS11disk_writepEPKhm.part.1+0x40>
     bee:	4263      	negs	r3, r4
     bf0:	415c      	adcs	r4, r3
     bf2:	b2e4      	uxtb	r4, r4
     bf4:	e7e7      	b.n	bc6 <_ZN4PFFS11disk_writepEPKhm.part.1+0x2a>
     bf6:	46c0      	nop			; (mov r8, r8)
     bf8:	025a      	lsls	r2, r3, #9
     bfa:	1000      	asrs	r0, r0, #32
     bfc:	ffff 0000 	vaddl.u<illegal width 64>	q8, d15, d0
     c00:	fde8 0000 	stc2l	0, cr0, [r8]

00000c04 <_ZN4PFFS15disk_initializeEv>:
_ZN4PFFS15disk_initializeEv():
     c04:	b573      	push	{r0, r1, r4, r5, r6, lr}
     c06:	2388      	movs	r3, #136	; 0x88
     c08:	25a0      	movs	r5, #160	; 0xa0
     c0a:	2480      	movs	r4, #128	; 0x80
     c0c:	4e40      	ldr	r6, [pc, #256]	; (d10 <_ZN4PFFS15disk_initializeEv+0x10c>)
     c0e:	019b      	lsls	r3, r3, #6
     c10:	062d      	lsls	r5, r5, #24
     c12:	50ec      	str	r4, [r5, r3]
     c14:	493f      	ldr	r1, [pc, #252]	; (d14 <_ZN4PFFS15disk_initializeEv+0x110>)
     c16:	0030      	movs	r0, r6
     c18:	f002 fd9a 	bl	3750 <_ZN4mbed3SPI9frequencyEi>
     c1c:	2200      	movs	r2, #0
     c1e:	2108      	movs	r1, #8
     c20:	0030      	movs	r0, r6
     c22:	f002 fd89 	bl	3738 <_ZN4mbed3SPI6formatEii>
     c26:	2384      	movs	r3, #132	; 0x84
     c28:	019b      	lsls	r3, r3, #6
     c2a:	58eb      	ldr	r3, [r5, r3]
     c2c:	4223      	tst	r3, r4
     c2e:	d101      	bne.n	c34 <_ZN4PFFS15disk_initializeEv+0x30>
     c30:	f7ff ffb4 	bl	b9c <_ZN4PFFS11disk_writepEPKhm.part.1>
     c34:	2464      	movs	r4, #100	; 0x64
     c36:	3c01      	subs	r4, #1
     c38:	b2e4      	uxtb	r4, r4
     c3a:	f7ff fed7 	bl	9ec <_ZN4PFFS7rcv_spiEv>
     c3e:	2c00      	cmp	r4, #0
     c40:	d1f9      	bne.n	c36 <_ZN4PFFS15disk_initializeEv+0x32>
     c42:	0021      	movs	r1, r4
     c44:	2040      	movs	r0, #64	; 0x40
     c46:	f7ff ff01 	bl	a4c <_ZN4PFFSL8send_cmdEhm>
     c4a:	0005      	movs	r5, r0
     c4c:	2801      	cmp	r0, #1
     c4e:	d00e      	beq.n	c6e <_ZN4PFFS15disk_initializeEv+0x6a>
     c50:	2500      	movs	r5, #0
     c52:	4b31      	ldr	r3, [pc, #196]	; (d18 <_ZN4PFFS15disk_initializeEv+0x114>)
     c54:	22a0      	movs	r2, #160	; 0xa0
     c56:	701d      	strb	r5, [r3, #0]
     c58:	2388      	movs	r3, #136	; 0x88
     c5a:	2180      	movs	r1, #128	; 0x80
     c5c:	0612      	lsls	r2, r2, #24
     c5e:	019b      	lsls	r3, r3, #6
     c60:	50d1      	str	r1, [r2, r3]
     c62:	f7ff fec3 	bl	9ec <_ZN4PFFS7rcv_spiEv>
     c66:	4268      	negs	r0, r5
     c68:	4168      	adcs	r0, r5
     c6a:	b2c0      	uxtb	r0, r0
     c6c:	bd76      	pop	{r1, r2, r4, r5, r6, pc}
     c6e:	21d5      	movs	r1, #213	; 0xd5
     c70:	2048      	movs	r0, #72	; 0x48
     c72:	0049      	lsls	r1, r1, #1
     c74:	f7ff feea 	bl	a4c <_ZN4PFFSL8send_cmdEhm>
     c78:	2801      	cmp	r0, #1
     c7a:	d11a      	bne.n	cb2 <_ZN4PFFS15disk_initializeEv+0xae>
     c7c:	f7ff feb6 	bl	9ec <_ZN4PFFS7rcv_spiEv>
     c80:	ad01      	add	r5, sp, #4
     c82:	5560      	strb	r0, [r4, r5]
     c84:	3401      	adds	r4, #1
     c86:	2c04      	cmp	r4, #4
     c88:	d1f8      	bne.n	c7c <_ZN4PFFS15disk_initializeEv+0x78>
     c8a:	78ab      	ldrb	r3, [r5, #2]
     c8c:	2b01      	cmp	r3, #1
     c8e:	d1df      	bne.n	c50 <_ZN4PFFS15disk_initializeEv+0x4c>
     c90:	78eb      	ldrb	r3, [r5, #3]
     c92:	2baa      	cmp	r3, #170	; 0xaa
     c94:	d1dc      	bne.n	c50 <_ZN4PFFS15disk_initializeEv+0x4c>
     c96:	2680      	movs	r6, #128	; 0x80
     c98:	4c20      	ldr	r4, [pc, #128]	; (d1c <_ZN4PFFS15disk_initializeEv+0x118>)
     c9a:	05f6      	lsls	r6, r6, #23
     c9c:	0031      	movs	r1, r6
     c9e:	20e9      	movs	r0, #233	; 0xe9
     ca0:	f7ff fed4 	bl	a4c <_ZN4PFFSL8send_cmdEhm>
     ca4:	1e01      	subs	r1, r0, #0
     ca6:	d019      	beq.n	cdc <_ZN4PFFS15disk_initializeEv+0xd8>
     ca8:	3c01      	subs	r4, #1
     caa:	b2a4      	uxth	r4, r4
     cac:	2c00      	cmp	r4, #0
     cae:	d1f5      	bne.n	c9c <_ZN4PFFS15disk_initializeEv+0x98>
     cb0:	e7ce      	b.n	c50 <_ZN4PFFS15disk_initializeEv+0x4c>
     cb2:	0021      	movs	r1, r4
     cb4:	20e9      	movs	r0, #233	; 0xe9
     cb6:	f7ff fec9 	bl	a4c <_ZN4PFFSL8send_cmdEhm>
     cba:	2641      	movs	r6, #65	; 0x41
     cbc:	2801      	cmp	r0, #1
     cbe:	d801      	bhi.n	cc4 <_ZN4PFFS15disk_initializeEv+0xc0>
     cc0:	2502      	movs	r5, #2
     cc2:	26e9      	movs	r6, #233	; 0xe9
     cc4:	4c16      	ldr	r4, [pc, #88]	; (d20 <_ZN4PFFS15disk_initializeEv+0x11c>)
     cc6:	2100      	movs	r1, #0
     cc8:	0030      	movs	r0, r6
     cca:	f7ff febf 	bl	a4c <_ZN4PFFSL8send_cmdEhm>
     cce:	2800      	cmp	r0, #0
     cd0:	d016      	beq.n	d00 <_ZN4PFFS15disk_initializeEv+0xfc>
     cd2:	3c01      	subs	r4, #1
     cd4:	b2a4      	uxth	r4, r4
     cd6:	2c00      	cmp	r4, #0
     cd8:	d1f5      	bne.n	cc6 <_ZN4PFFS15disk_initializeEv+0xc2>
     cda:	e7b9      	b.n	c50 <_ZN4PFFS15disk_initializeEv+0x4c>
     cdc:	207a      	movs	r0, #122	; 0x7a
     cde:	f7ff feb5 	bl	a4c <_ZN4PFFSL8send_cmdEhm>
     ce2:	2800      	cmp	r0, #0
     ce4:	d1b4      	bne.n	c50 <_ZN4PFFS15disk_initializeEv+0x4c>
     ce6:	0004      	movs	r4, r0
     ce8:	f7ff fe80 	bl	9ec <_ZN4PFFS7rcv_spiEv>
     cec:	5528      	strb	r0, [r5, r4]
     cee:	3401      	adds	r4, #1
     cf0:	2c04      	cmp	r4, #4
     cf2:	d1f9      	bne.n	ce8 <_ZN4PFFS15disk_initializeEv+0xe4>
     cf4:	782b      	ldrb	r3, [r5, #0]
     cf6:	250c      	movs	r5, #12
     cf8:	065b      	lsls	r3, r3, #25
     cfa:	d4aa      	bmi.n	c52 <_ZN4PFFS15disk_initializeEv+0x4e>
     cfc:	0025      	movs	r5, r4
     cfe:	e7a8      	b.n	c52 <_ZN4PFFS15disk_initializeEv+0x4e>
     d00:	2180      	movs	r1, #128	; 0x80
     d02:	2050      	movs	r0, #80	; 0x50
     d04:	0089      	lsls	r1, r1, #2
     d06:	f7ff fea1 	bl	a4c <_ZN4PFFSL8send_cmdEhm>
     d0a:	2800      	cmp	r0, #0
     d0c:	d1a0      	bne.n	c50 <_ZN4PFFS15disk_initializeEv+0x4c>
     d0e:	e7a0      	b.n	c52 <_ZN4PFFS15disk_initializeEv+0x4e>
     d10:	1278      	asrs	r0, r7, #9
     d12:	1000      	asrs	r0, r0, #32
     d14:	3600      	adds	r6, #0
     d16:	016e      	lsls	r6, r5, #5
     d18:	0259      	lsls	r1, r3, #9
     d1a:	1000      	asrs	r0, r0, #32
     d1c:	2ee0      	cmp	r6, #224	; 0xe0
     d1e:	0000      	movs	r0, r0
     d20:	61a8      	str	r0, [r5, #24]
	...

00000d24 <spi_init>:
spi_init():
     d24:	b5f0      	push	{r4, r5, r6, r7, lr}
     d26:	b085      	sub	sp, #20
     d28:	9100      	str	r1, [sp, #0]
     d2a:	0004      	movs	r4, r0
     d2c:	4930      	ldr	r1, [pc, #192]	; (df0 <spi_init+0xcc>)
     d2e:	9800      	ldr	r0, [sp, #0]
     d30:	0016      	movs	r6, r2
     d32:	001d      	movs	r5, r3
     d34:	f002 fe4e 	bl	39d4 <pinmap_peripheral>
     d38:	492e      	ldr	r1, [pc, #184]	; (df4 <spi_init+0xd0>)
     d3a:	0007      	movs	r7, r0
     d3c:	0030      	movs	r0, r6
     d3e:	f002 fe49 	bl	39d4 <pinmap_peripheral>
     d42:	492d      	ldr	r1, [pc, #180]	; (df8 <spi_init+0xd4>)
     d44:	9001      	str	r0, [sp, #4]
     d46:	0028      	movs	r0, r5
     d48:	f002 fe44 	bl	39d4 <pinmap_peripheral>
     d4c:	492b      	ldr	r1, [pc, #172]	; (dfc <spi_init+0xd8>)
     d4e:	9002      	str	r0, [sp, #8]
     d50:	980a      	ldr	r0, [sp, #40]	; 0x28
     d52:	f002 fe3f 	bl	39d4 <pinmap_peripheral>
     d56:	9901      	ldr	r1, [sp, #4]
     d58:	9003      	str	r0, [sp, #12]
     d5a:	0038      	movs	r0, r7
     d5c:	f002 fe1c 	bl	3998 <pinmap_merge>
     d60:	9903      	ldr	r1, [sp, #12]
     d62:	0007      	movs	r7, r0
     d64:	9802      	ldr	r0, [sp, #8]
     d66:	f002 fe17 	bl	3998 <pinmap_merge>
     d6a:	0001      	movs	r1, r0
     d6c:	0038      	movs	r0, r7
     d6e:	f002 fe13 	bl	3998 <pinmap_merge>
     d72:	6020      	str	r0, [r4, #0]
     d74:	1c43      	adds	r3, r0, #1
     d76:	d104      	bne.n	d82 <spi_init+0x5e>
     d78:	2248      	movs	r2, #72	; 0x48
     d7a:	4921      	ldr	r1, [pc, #132]	; (e00 <spi_init+0xdc>)
     d7c:	4821      	ldr	r0, [pc, #132]	; (e04 <spi_init+0xe0>)
     d7e:	f002 fe85 	bl	3a8c <mbed_assert_internal>
     d82:	6823      	ldr	r3, [r4, #0]
     d84:	4a20      	ldr	r2, [pc, #128]	; (e08 <spi_init+0xe4>)
     d86:	4293      	cmp	r3, r2
     d88:	d017      	beq.n	dba <spi_init+0x96>
     d8a:	4a20      	ldr	r2, [pc, #128]	; (e0c <spi_init+0xe8>)
     d8c:	4293      	cmp	r3, r2
     d8e:	d022      	beq.n	dd6 <spi_init+0xb2>
     d90:	4917      	ldr	r1, [pc, #92]	; (df0 <spi_init+0xcc>)
     d92:	9800      	ldr	r0, [sp, #0]
     d94:	f002 fde6 	bl	3964 <pinmap_pinout>
     d98:	4916      	ldr	r1, [pc, #88]	; (df4 <spi_init+0xd0>)
     d9a:	0030      	movs	r0, r6
     d9c:	f002 fde2 	bl	3964 <pinmap_pinout>
     da0:	4915      	ldr	r1, [pc, #84]	; (df8 <spi_init+0xd4>)
     da2:	0028      	movs	r0, r5
     da4:	f002 fdde 	bl	3964 <pinmap_pinout>
     da8:	9b0a      	ldr	r3, [sp, #40]	; 0x28
     daa:	3301      	adds	r3, #1
     dac:	d003      	beq.n	db6 <spi_init+0x92>
     dae:	4913      	ldr	r1, [pc, #76]	; (dfc <spi_init+0xd8>)
     db0:	980a      	ldr	r0, [sp, #40]	; 0x28
     db2:	f002 fdd7 	bl	3964 <pinmap_pinout>
     db6:	b005      	add	sp, #20
     db8:	bdf0      	pop	{r4, r5, r6, r7, pc}
     dba:	2380      	movs	r3, #128	; 0x80
     dbc:	4914      	ldr	r1, [pc, #80]	; (e10 <spi_init+0xec>)
     dbe:	011b      	lsls	r3, r3, #4
     dc0:	6fc8      	ldr	r0, [r1, #124]	; 0x7c
     dc2:	4a14      	ldr	r2, [pc, #80]	; (e14 <spi_init+0xf0>)
     dc4:	4303      	orrs	r3, r0
     dc6:	67cb      	str	r3, [r1, #124]	; 0x7c
     dc8:	2301      	movs	r3, #1
     dca:	4913      	ldr	r1, [pc, #76]	; (e18 <spi_init+0xf4>)
     dcc:	600b      	str	r3, [r1, #0]
     dce:	6851      	ldr	r1, [r2, #4]
     dd0:	430b      	orrs	r3, r1
     dd2:	6053      	str	r3, [r2, #4]
     dd4:	e7dc      	b.n	d90 <spi_init+0x6c>
     dd6:	2380      	movs	r3, #128	; 0x80
     dd8:	490d      	ldr	r1, [pc, #52]	; (e10 <spi_init+0xec>)
     dda:	02db      	lsls	r3, r3, #11
     ddc:	6fc8      	ldr	r0, [r1, #124]	; 0x7c
     dde:	4a0d      	ldr	r2, [pc, #52]	; (e14 <spi_init+0xf0>)
     de0:	4303      	orrs	r3, r0
     de2:	67cb      	str	r3, [r1, #124]	; 0x7c
     de4:	2101      	movs	r1, #1
     de6:	4b0d      	ldr	r3, [pc, #52]	; (e1c <spi_init+0xf8>)
     de8:	6019      	str	r1, [r3, #0]
     dea:	6851      	ldr	r1, [r2, #4]
     dec:	2304      	movs	r3, #4
     dee:	e7ef      	b.n	dd0 <spi_init+0xac>
     df0:	f6e8 0000 			; <UNDEFINED> instruction: 0xf6e80000
     df4:	f6ac 0000 	subw	r0, ip, #2048	; 0x800
     df8:	f724 0000 			; <UNDEFINED> instruction: 0xf7240000
     dfc:	f76c 0000 			; <UNDEFINED> instruction: 0xf76c0000
     e00:	f80d 0000 	strb.w	r0, [sp, r0]
     e04:	f874 0000 	ldr??.w	r0, [r4, r0]
     e08:	0000      	movs	r0, r0
     e0a:	4004      	ands	r4, r0
     e0c:	8000      	strh	r0, [r0, #0]
     e0e:	4005      	ands	r5, r0
     e10:	8004      	strh	r4, [r0, #0]
     e12:	4004      	ands	r4, r0
     e14:	8000      	strh	r0, [r0, #0]
     e16:	4004      	ands	r4, r0
     e18:	8094      	strh	r4, [r2, #4]
     e1a:	4004      	ands	r4, r0
     e1c:	809c      	strh	r4, [r3, #4]
     e1e:	4004      	ands	r4, r0

00000e20 <spi_format>:
spi_format():
     e20:	b5f8      	push	{r3, r4, r5, r6, r7, lr}
     e22:	000e      	movs	r6, r1
     e24:	2102      	movs	r1, #2
     e26:	0015      	movs	r5, r2
     e28:	6802      	ldr	r2, [r0, #0]
     e2a:	001c      	movs	r4, r3
     e2c:	6853      	ldr	r3, [r2, #4]
     e2e:	0007      	movs	r7, r0
     e30:	438b      	bics	r3, r1
     e32:	6053      	str	r3, [r2, #4]
     e34:	1f33      	subs	r3, r6, #4
     e36:	2b0c      	cmp	r3, #12
     e38:	d906      	bls.n	e48 <spi_format+0x28>
     e3a:	2d03      	cmp	r5, #3
     e3c:	d904      	bls.n	e48 <spi_format+0x28>
     e3e:	2265      	movs	r2, #101	; 0x65
     e40:	490f      	ldr	r1, [pc, #60]	; (e80 <spi_format+0x60>)
     e42:	4810      	ldr	r0, [pc, #64]	; (e84 <spi_format+0x64>)
     e44:	f002 fe22 	bl	3a8c <mbed_assert_internal>
     e48:	20ff      	movs	r0, #255	; 0xff
     e4a:	683b      	ldr	r3, [r7, #0]
     e4c:	3e01      	subs	r6, #1
     e4e:	6819      	ldr	r1, [r3, #0]
     e50:	0c09      	lsrs	r1, r1, #16
     e52:	040a      	lsls	r2, r1, #16
     e54:	01e9      	lsls	r1, r5, #7
     e56:	4001      	ands	r1, r0
     e58:	016d      	lsls	r5, r5, #5
     e5a:	38bf      	subs	r0, #191	; 0xbf
     e5c:	4331      	orrs	r1, r6
     e5e:	4005      	ands	r5, r0
     e60:	4329      	orrs	r1, r5
     e62:	4311      	orrs	r1, r2
     e64:	6019      	str	r1, [r3, #0]
     e66:	210d      	movs	r1, #13
     e68:	685a      	ldr	r2, [r3, #4]
     e6a:	438a      	bics	r2, r1
     e6c:	1e61      	subs	r1, r4, #1
     e6e:	418c      	sbcs	r4, r1
     e70:	00a4      	lsls	r4, r4, #2
     e72:	4314      	orrs	r4, r2
     e74:	2202      	movs	r2, #2
     e76:	605c      	str	r4, [r3, #4]
     e78:	6859      	ldr	r1, [r3, #4]
     e7a:	430a      	orrs	r2, r1
     e7c:	605a      	str	r2, [r3, #4]
     e7e:	bdf8      	pop	{r3, r4, r5, r6, r7, pc}
     e80:	f80d 0000 	strb.w	r0, [sp, r0]
     e84:	f7a8 0000 			; <UNDEFINED> instruction: 0xf7a80000

00000e88 <spi_frequency>:
spi_frequency():
     e88:	b5f8      	push	{r3, r4, r5, r6, r7, lr}
     e8a:	2502      	movs	r5, #2
     e8c:	000f      	movs	r7, r1
     e8e:	6804      	ldr	r4, [r0, #0]
     e90:	6863      	ldr	r3, [r4, #4]
     e92:	43ab      	bics	r3, r5
     e94:	6063      	str	r3, [r4, #4]
     e96:	4b12      	ldr	r3, [pc, #72]	; (ee0 <spi_frequency+0x58>)
     e98:	681e      	ldr	r6, [r3, #0]
     e9a:	0029      	movs	r1, r5
     e9c:	0030      	movs	r0, r6
     e9e:	f00b fde1 	bl	ca64 <__udivsi3>
     ea2:	0843      	lsrs	r3, r0, #1
     ea4:	1818      	adds	r0, r3, r0
     ea6:	0039      	movs	r1, r7
     ea8:	f00b fddc 	bl	ca64 <__udivsi3>
     eac:	28ff      	cmp	r0, #255	; 0xff
     eae:	d80e      	bhi.n	ece <spi_frequency+0x46>
     eb0:	6125      	str	r5, [r4, #16]
     eb2:	6823      	ldr	r3, [r4, #0]
     eb4:	4a0b      	ldr	r2, [pc, #44]	; (ee4 <spi_frequency+0x5c>)
     eb6:	3801      	subs	r0, #1
     eb8:	4013      	ands	r3, r2
     eba:	6023      	str	r3, [r4, #0]
     ebc:	6823      	ldr	r3, [r4, #0]
     ebe:	0200      	lsls	r0, r0, #8
     ec0:	4318      	orrs	r0, r3
     ec2:	2302      	movs	r3, #2
     ec4:	6020      	str	r0, [r4, #0]
     ec6:	6862      	ldr	r2, [r4, #4]
     ec8:	4313      	orrs	r3, r2
     eca:	6063      	str	r3, [r4, #4]
     ecc:	bdf8      	pop	{r3, r4, r5, r6, r7, pc}
     ece:	2380      	movs	r3, #128	; 0x80
     ed0:	3502      	adds	r5, #2
     ed2:	005b      	lsls	r3, r3, #1
     ed4:	429d      	cmp	r5, r3
     ed6:	d1e0      	bne.n	e9a <spi_frequency+0x12>
     ed8:	4803      	ldr	r0, [pc, #12]	; (ee8 <spi_frequency+0x60>)
     eda:	f002 fdd3 	bl	3a84 <error>
     ede:	e7f5      	b.n	ecc <spi_frequency+0x44>
     ee0:	0104      	lsls	r4, r0, #4
     ee2:	1000      	asrs	r0, r0, #32
     ee4:	00ff      	lsls	r7, r7, #3
     ee6:	ff00 f7e6 	vabd.u8	<illegal reg q7.5>, q8, q11
	...

00000eec <spi_slave_write>:
spi_slave_write():
     eec:	2202      	movs	r2, #2
     eee:	6803      	ldr	r3, [r0, #0]
     ef0:	68d8      	ldr	r0, [r3, #12]
     ef2:	4210      	tst	r0, r2
     ef4:	d0fc      	beq.n	ef0 <spi_slave_write+0x4>
     ef6:	6099      	str	r1, [r3, #8]
     ef8:	4770      	bx	lr

00000efa <spi_master_write>:
spi_master_write():
     efa:	b510      	push	{r4, lr}
     efc:	0004      	movs	r4, r0
     efe:	f7ff fff5 	bl	eec <spi_slave_write>
     f02:	2204      	movs	r2, #4
     f04:	6823      	ldr	r3, [r4, #0]
     f06:	68d9      	ldr	r1, [r3, #12]
     f08:	4211      	tst	r1, r2
     f0a:	d0fc      	beq.n	f06 <spi_master_write+0xc>
     f0c:	6898      	ldr	r0, [r3, #8]
     f0e:	bd10      	pop	{r4, pc}

00000f10 <serial_baud>:
serial_baud():
     f10:	b5f0      	push	{r4, r5, r6, r7, lr}
     f12:	2501      	movs	r5, #1
     f14:	4b4b      	ldr	r3, [pc, #300]	; (1044 <serial_baud+0x134>)
     f16:	b089      	sub	sp, #36	; 0x24
     f18:	9005      	str	r0, [sp, #20]
     f1a:	601d      	str	r5, [r3, #0]
     f1c:	4b4a      	ldr	r3, [pc, #296]	; (1048 <serial_baud+0x138>)
     f1e:	4a4b      	ldr	r2, [pc, #300]	; (104c <serial_baud+0x13c>)
     f20:	601d      	str	r5, [r3, #0]
     f22:	6812      	ldr	r2, [r2, #0]
     f24:	000f      	movs	r7, r1
     f26:	9204      	str	r2, [sp, #16]
     f28:	9a05      	ldr	r2, [sp, #20]
     f2a:	7a16      	ldrb	r6, [r2, #8]
     f2c:	2e00      	cmp	r6, #0
     f2e:	d167      	bne.n	1000 <serial_baud+0xf0>
     f30:	0109      	lsls	r1, r1, #4
     f32:	9804      	ldr	r0, [sp, #16]
     f34:	f00b fe1c 	bl	cb70 <__aeabi_uidivmod>
     f38:	b284      	uxth	r4, r0
     f3a:	2900      	cmp	r1, #0
     f3c:	d14f      	bne.n	fde <serial_baud+0xce>
     f3e:	000e      	movs	r6, r1
     f40:	9501      	str	r5, [sp, #4]
     f42:	2180      	movs	r1, #128	; 0x80
     f44:	9b05      	ldr	r3, [sp, #20]
     f46:	681b      	ldr	r3, [r3, #0]
     f48:	68da      	ldr	r2, [r3, #12]
     f4a:	430a      	orrs	r2, r1
     f4c:	60da      	str	r2, [r3, #12]
     f4e:	0a22      	lsrs	r2, r4, #8
     f50:	b292      	uxth	r2, r2
     f52:	605a      	str	r2, [r3, #4]
     f54:	9a01      	ldr	r2, [sp, #4]
     f56:	b2e4      	uxtb	r4, r4
     f58:	0115      	lsls	r5, r2, #4
     f5a:	432e      	orrs	r6, r5
     f5c:	601c      	str	r4, [r3, #0]
     f5e:	629e      	str	r6, [r3, #40]	; 0x28
     f60:	68da      	ldr	r2, [r3, #12]
     f62:	438a      	bics	r2, r1
     f64:	60da      	str	r2, [r3, #12]
     f66:	b009      	add	sp, #36	; 0x24
     f68:	bdf0      	pop	{r4, r5, r6, r7, pc}
     f6a:	9600      	str	r6, [sp, #0]
     f6c:	000e      	movs	r6, r1
     f6e:	9406      	str	r4, [sp, #24]
     f70:	9b04      	ldr	r3, [sp, #16]
     f72:	436b      	muls	r3, r5
     f74:	9303      	str	r3, [sp, #12]
     f76:	0058      	lsls	r0, r3, #1
     f78:	1973      	adds	r3, r6, r5
     f7a:	0019      	movs	r1, r3
     f7c:	9307      	str	r3, [sp, #28]
     f7e:	4379      	muls	r1, r7
     f80:	2800      	cmp	r0, #0
     f82:	da31      	bge.n	fe8 <serial_baud+0xd8>
     f84:	f00b fd6e 	bl	ca64 <__udivsi3>
     f88:	0904      	lsrs	r4, r0, #4
     f8a:	3401      	adds	r4, #1
     f8c:	0864      	lsrs	r4, r4, #1
     f8e:	b2a4      	uxth	r4, r4
     f90:	2c00      	cmp	r4, #0
     f92:	d053      	beq.n	103c <serial_baud+0x12c>
     f94:	2e00      	cmp	r6, #0
     f96:	d002      	beq.n	f9e <serial_baud+0x8e>
     f98:	2c01      	cmp	r4, #1
     f9a:	d100      	bne.n	f9e <serial_baud+0x8e>
     f9c:	3401      	adds	r4, #1
     f9e:	1971      	adds	r1, r6, r5
     fa0:	4361      	muls	r1, r4
     fa2:	9803      	ldr	r0, [sp, #12]
     fa4:	00c9      	lsls	r1, r1, #3
     fa6:	f00b fd5d 	bl	ca64 <__udivsi3>
     faa:	3001      	adds	r0, #1
     fac:	0840      	lsrs	r0, r0, #1
     fae:	1bc0      	subs	r0, r0, r7
     fb0:	f00a fb12 	bl	b5d8 <abs>
     fb4:	9b02      	ldr	r3, [sp, #8]
     fb6:	4298      	cmp	r0, r3
     fb8:	da1c      	bge.n	ff4 <serial_baud+0xe4>
     fba:	4287      	cmp	r7, r0
     fbc:	d01c      	beq.n	ff8 <serial_baud+0xe8>
     fbe:	9002      	str	r0, [sp, #8]
     fc0:	9501      	str	r5, [sp, #4]
     fc2:	9600      	str	r6, [sp, #0]
     fc4:	3601      	adds	r6, #1
     fc6:	b2f1      	uxtb	r1, r6
     fc8:	9e00      	ldr	r6, [sp, #0]
     fca:	42a9      	cmp	r1, r5
     fcc:	d3cd      	bcc.n	f6a <serial_baud+0x5a>
     fce:	2100      	movs	r1, #0
     fd0:	3501      	adds	r5, #1
     fd2:	b2ed      	uxtb	r5, r5
     fd4:	2d10      	cmp	r5, #16
     fd6:	d0b4      	beq.n	f42 <serial_baud+0x32>
     fd8:	2900      	cmp	r1, #0
     fda:	d0c6      	beq.n	f6a <serial_baud+0x5a>
     fdc:	e7b1      	b.n	f42 <serial_baud+0x32>
     fde:	9406      	str	r4, [sp, #24]
     fe0:	9702      	str	r7, [sp, #8]
     fe2:	9501      	str	r5, [sp, #4]
     fe4:	9600      	str	r6, [sp, #0]
     fe6:	e7c3      	b.n	f70 <serial_baud+0x60>
     fe8:	9b03      	ldr	r3, [sp, #12]
     fea:	0098      	lsls	r0, r3, #2
     fec:	f00b fd3a 	bl	ca64 <__udivsi3>
     ff0:	0944      	lsrs	r4, r0, #5
     ff2:	e7ca      	b.n	f8a <serial_baud+0x7a>
     ff4:	9c06      	ldr	r4, [sp, #24]
     ff6:	e7e5      	b.n	fc4 <serial_baud+0xb4>
     ff8:	9702      	str	r7, [sp, #8]
     ffa:	9501      	str	r5, [sp, #4]
     ffc:	2101      	movs	r1, #1
     ffe:	e7e7      	b.n	fd0 <serial_baud+0xc0>
    1000:	6819      	ldr	r1, [r3, #0]
    1002:	9804      	ldr	r0, [sp, #16]
    1004:	f00b fd2e 	bl	ca64 <__udivsi3>
    1008:	9b05      	ldr	r3, [sp, #20]
    100a:	0904      	lsrs	r4, r0, #4
    100c:	0039      	movs	r1, r7
    100e:	0020      	movs	r0, r4
    1010:	685d      	ldr	r5, [r3, #4]
    1012:	f00b fd27 	bl	ca64 <__udivsi3>
    1016:	22ff      	movs	r2, #255	; 0xff
    1018:	4b0d      	ldr	r3, [pc, #52]	; (1050 <serial_baud+0x140>)
    101a:	3801      	subs	r0, #1
    101c:	6228      	str	r0, [r5, #32]
    101e:	601a      	str	r2, [r3, #0]
    1020:	6818      	ldr	r0, [r3, #0]
    1022:	6a29      	ldr	r1, [r5, #32]
    1024:	3001      	adds	r0, #1
    1026:	681d      	ldr	r5, [r3, #0]
    1028:	3101      	adds	r1, #1
    102a:	4360      	muls	r0, r4
    102c:	4379      	muls	r1, r7
    102e:	f00b fd19 	bl	ca64 <__udivsi3>
    1032:	43ed      	mvns	r5, r5
    1034:	4b07      	ldr	r3, [pc, #28]	; (1054 <serial_baud+0x144>)
    1036:	1940      	adds	r0, r0, r5
    1038:	6018      	str	r0, [r3, #0]
    103a:	e794      	b.n	f66 <serial_baud+0x56>
    103c:	0034      	movs	r4, r6
    103e:	1e63      	subs	r3, r4, #1
    1040:	419c      	sbcs	r4, r3
    1042:	e7ab      	b.n	f9c <serial_baud+0x8c>
    1044:	8098      	strh	r0, [r3, #4]
    1046:	4004      	ands	r4, r0
    1048:	80a0      	strh	r0, [r4, #4]
    104a:	4004      	ands	r4, r0
    104c:	0104      	lsls	r4, r0, #4
    104e:	1000      	asrs	r0, r0, #32
    1050:	80f0      	strh	r0, [r6, #6]
    1052:	4004      	ands	r4, r0
    1054:	80f4      	strh	r4, [r6, #6]
    1056:	4004      	ands	r4, r0

00001058 <serial_format>:
serial_format():
    1058:	b5f8      	push	{r3, r4, r5, r6, r7, lr}
    105a:	1e5d      	subs	r5, r3, #1
    105c:	0007      	movs	r7, r0
    105e:	000c      	movs	r4, r1
    1060:	0016      	movs	r6, r2
    1062:	2d01      	cmp	r5, #1
    1064:	d905      	bls.n	1072 <serial_format+0x1a>
    1066:	2204      	movs	r2, #4
    1068:	4921      	ldr	r1, [pc, #132]	; (10f0 <serial_format+0x98>)
    106a:	32ff      	adds	r2, #255	; 0xff
    106c:	4821      	ldr	r0, [pc, #132]	; (10f4 <serial_format+0x9c>)
    106e:	f002 fd0d 	bl	3a8c <mbed_assert_internal>
    1072:	7a3b      	ldrb	r3, [r7, #8]
    1074:	2b00      	cmp	r3, #0
    1076:	d111      	bne.n	109c <serial_format+0x44>
    1078:	3c05      	subs	r4, #5
    107a:	2c03      	cmp	r4, #3
    107c:	d905      	bls.n	108a <serial_format+0x32>
    107e:	2284      	movs	r2, #132	; 0x84
    1080:	491b      	ldr	r1, [pc, #108]	; (10f0 <serial_format+0x98>)
    1082:	0052      	lsls	r2, r2, #1
    1084:	481c      	ldr	r0, [pc, #112]	; (10f8 <serial_format+0xa0>)
    1086:	f002 fd01 	bl	3a8c <mbed_assert_internal>
    108a:	2e04      	cmp	r6, #4
    108c:	d916      	bls.n	10bc <serial_format+0x64>
    108e:	2285      	movs	r2, #133	; 0x85
    1090:	4917      	ldr	r1, [pc, #92]	; (10f0 <serial_format+0x98>)
    1092:	481a      	ldr	r0, [pc, #104]	; (10fc <serial_format+0xa4>)
    1094:	0052      	lsls	r2, r2, #1
    1096:	f002 fcf9 	bl	3a8c <mbed_assert_internal>
    109a:	bdf8      	pop	{r3, r4, r5, r6, r7, pc}
    109c:	3c07      	subs	r4, #7
    109e:	2c02      	cmp	r4, #2
    10a0:	d905      	bls.n	10ae <serial_format+0x56>
    10a2:	2220      	movs	r2, #32
    10a4:	4912      	ldr	r1, [pc, #72]	; (10f0 <serial_format+0x98>)
    10a6:	32ff      	adds	r2, #255	; 0xff
    10a8:	4815      	ldr	r0, [pc, #84]	; (1100 <serial_format+0xa8>)
    10aa:	f002 fcef 	bl	3a8c <mbed_assert_internal>
    10ae:	2e02      	cmp	r6, #2
    10b0:	d911      	bls.n	10d6 <serial_format+0x7e>
    10b2:	2290      	movs	r2, #144	; 0x90
    10b4:	490e      	ldr	r1, [pc, #56]	; (10f0 <serial_format+0x98>)
    10b6:	0052      	lsls	r2, r2, #1
    10b8:	4812      	ldr	r0, [pc, #72]	; (1104 <serial_format+0xac>)
    10ba:	e7ec      	b.n	1096 <serial_format+0x3e>
    10bc:	4b12      	ldr	r3, [pc, #72]	; (1108 <serial_format+0xb0>)
    10be:	4913      	ldr	r1, [pc, #76]	; (110c <serial_format+0xb4>)
    10c0:	579b      	ldrsb	r3, [r3, r6]
    10c2:	5789      	ldrsb	r1, [r1, r6]
    10c4:	00db      	lsls	r3, r3, #3
    10c6:	0109      	lsls	r1, r1, #4
    10c8:	430b      	orrs	r3, r1
    10ca:	683a      	ldr	r2, [r7, #0]
    10cc:	431c      	orrs	r4, r3
    10ce:	00ad      	lsls	r5, r5, #2
    10d0:	4325      	orrs	r5, r4
    10d2:	60d5      	str	r5, [r2, #12]
    10d4:	e7e1      	b.n	109a <serial_format+0x42>
    10d6:	4b0e      	ldr	r3, [pc, #56]	; (1110 <serial_format+0xb8>)
    10d8:	00a4      	lsls	r4, r4, #2
    10da:	579b      	ldrsb	r3, [r3, r6]
    10dc:	01ad      	lsls	r5, r5, #6
    10de:	011b      	lsls	r3, r3, #4
    10e0:	431c      	orrs	r4, r3
    10e2:	4325      	orrs	r5, r4
    10e4:	2401      	movs	r4, #1
    10e6:	687a      	ldr	r2, [r7, #4]
    10e8:	4325      	orrs	r5, r4
    10ea:	6015      	str	r5, [r2, #0]
    10ec:	e7d5      	b.n	109a <serial_format+0x42>
    10ee:	46c0      	nop			; (mov r8, r8)
    10f0:	f988 0000 	vst1.8	{d0[0]}, [r8], r0
    10f4:	f9f2 0000 	ldr??.w	r0, [r2]
    10f8:	fa17 0000 			; <UNDEFINED> instruction: 0xfa170000
    10fc:	fa3a 0000 			; <UNDEFINED> instruction: 0xfa3a0000
    1100:	fabe 0000 			; <UNDEFINED> instruction: 0xfabe0000
    1104:	fae2 0000 			; <UNDEFINED> instruction: 0xfae20000
    1108:	f888 0000 	strb.w	r0, [r8]
    110c:	f88d 0000 	strb.w	r0, [sp]
    1110:	f892 0000 	ldrb.w	r0, [r2]

00001114 <serial_init>:
serial_init():
    1114:	b5f8      	push	{r3, r4, r5, r6, r7, lr}
    1116:	000f      	movs	r7, r1
    1118:	0005      	movs	r5, r0
    111a:	4950      	ldr	r1, [pc, #320]	; (125c <serial_init+0x148>)
    111c:	0038      	movs	r0, r7
    111e:	0016      	movs	r6, r2
    1120:	f002 fc58 	bl	39d4 <pinmap_peripheral>
    1124:	494e      	ldr	r1, [pc, #312]	; (1260 <serial_init+0x14c>)
    1126:	0004      	movs	r4, r0
    1128:	0030      	movs	r0, r6
    112a:	f002 fc53 	bl	39d4 <pinmap_peripheral>
    112e:	0001      	movs	r1, r0
    1130:	0020      	movs	r0, r4
    1132:	f002 fc31 	bl	3998 <pinmap_merge>
    1136:	0004      	movs	r4, r0
    1138:	1c43      	adds	r3, r0, #1
    113a:	d13a      	bne.n	11b2 <serial_init+0x9e>
    113c:	2257      	movs	r2, #87	; 0x57
    113e:	4949      	ldr	r1, [pc, #292]	; (1264 <serial_init+0x150>)
    1140:	4849      	ldr	r0, [pc, #292]	; (1268 <serial_init+0x154>)
    1142:	f002 fca3 	bl	3a8c <mbed_assert_internal>
    1146:	7a2b      	ldrb	r3, [r5, #8]
    1148:	2b00      	cmp	r3, #0
    114a:	d000      	beq.n	114e <serial_init+0x3a>
    114c:	e07d      	b.n	124a <serial_init+0x136>
    114e:	2201      	movs	r2, #1
    1150:	602c      	str	r4, [r5, #0]
    1152:	60a2      	str	r2, [r4, #8]
    1154:	6063      	str	r3, [r4, #4]
    1156:	2196      	movs	r1, #150	; 0x96
    1158:	0028      	movs	r0, r5
    115a:	0189      	lsls	r1, r1, #6
    115c:	f7ff fed8 	bl	f10 <serial_baud>
    1160:	2301      	movs	r3, #1
    1162:	2200      	movs	r2, #0
    1164:	2108      	movs	r1, #8
    1166:	0028      	movs	r0, r5
    1168:	f7ff ff76 	bl	1058 <serial_format>
    116c:	493b      	ldr	r1, [pc, #236]	; (125c <serial_init+0x148>)
    116e:	0038      	movs	r0, r7
    1170:	f002 fbf8 	bl	3964 <pinmap_pinout>
    1174:	493a      	ldr	r1, [pc, #232]	; (1260 <serial_init+0x14c>)
    1176:	0030      	movs	r0, r6
    1178:	f002 fbf4 	bl	3964 <pinmap_pinout>
    117c:	1c7b      	adds	r3, r7, #1
    117e:	d003      	beq.n	1188 <serial_init+0x74>
    1180:	2102      	movs	r1, #2
    1182:	0038      	movs	r0, r7
    1184:	f000 f8d8 	bl	1338 <pin_mode>
    1188:	1c73      	adds	r3, r6, #1
    118a:	d003      	beq.n	1194 <serial_init+0x80>
    118c:	2102      	movs	r1, #2
    118e:	0030      	movs	r0, r6
    1190:	f000 f8d2 	bl	1338 <pin_mode>
    1194:	4b35      	ldr	r3, [pc, #212]	; (126c <serial_init+0x158>)
    1196:	429c      	cmp	r4, r3
    1198:	d10a      	bne.n	11b0 <serial_init+0x9c>
    119a:	7a2b      	ldrb	r3, [r5, #8]
    119c:	2b00      	cmp	r3, #0
    119e:	d107      	bne.n	11b0 <serial_init+0x9c>
    11a0:	2201      	movs	r2, #1
    11a2:	4b33      	ldr	r3, [pc, #204]	; (1270 <serial_init+0x15c>)
    11a4:	0029      	movs	r1, r5
    11a6:	601a      	str	r2, [r3, #0]
    11a8:	4832      	ldr	r0, [pc, #200]	; (1274 <serial_init+0x160>)
    11aa:	320b      	adds	r2, #11
    11ac:	f00a fc9f 	bl	baee <memcpy>
    11b0:	bdf8      	pop	{r3, r4, r5, r6, r7, pc}
    11b2:	4b31      	ldr	r3, [pc, #196]	; (1278 <serial_init+0x164>)
    11b4:	4298      	cmp	r0, r3
    11b6:	d02e      	beq.n	1216 <serial_init+0x102>
    11b8:	d812      	bhi.n	11e0 <serial_init+0xcc>
    11ba:	4b2c      	ldr	r3, [pc, #176]	; (126c <serial_init+0x158>)
    11bc:	4298      	cmp	r0, r3
    11be:	d021      	beq.n	1204 <serial_init+0xf0>
    11c0:	4b2e      	ldr	r3, [pc, #184]	; (127c <serial_init+0x168>)
    11c2:	4298      	cmp	r0, r3
    11c4:	d1bf      	bne.n	1146 <serial_init+0x32>
    11c6:	2304      	movs	r3, #4
    11c8:	722b      	strb	r3, [r5, #8]
    11ca:	2380      	movs	r3, #128	; 0x80
    11cc:	492c      	ldr	r1, [pc, #176]	; (1280 <serial_init+0x16c>)
    11ce:	03db      	lsls	r3, r3, #15
    11d0:	6fc8      	ldr	r0, [r1, #124]	; 0x7c
    11d2:	4a2c      	ldr	r2, [pc, #176]	; (1284 <serial_init+0x170>)
    11d4:	4303      	orrs	r3, r0
    11d6:	67cb      	str	r3, [r1, #124]	; 0x7c
    11d8:	2380      	movs	r3, #128	; 0x80
    11da:	6851      	ldr	r1, [r2, #4]
    11dc:	005b      	lsls	r3, r3, #1
    11de:	e025      	b.n	122c <serial_init+0x118>
    11e0:	4b29      	ldr	r3, [pc, #164]	; (1288 <serial_init+0x174>)
    11e2:	4298      	cmp	r0, r3
    11e4:	d025      	beq.n	1232 <serial_init+0x11e>
    11e6:	4b29      	ldr	r3, [pc, #164]	; (128c <serial_init+0x178>)
    11e8:	4298      	cmp	r0, r3
    11ea:	d1ac      	bne.n	1146 <serial_init+0x32>
    11ec:	2303      	movs	r3, #3
    11ee:	722b      	strb	r3, [r5, #8]
    11f0:	2380      	movs	r3, #128	; 0x80
    11f2:	4923      	ldr	r1, [pc, #140]	; (1280 <serial_init+0x16c>)
    11f4:	03db      	lsls	r3, r3, #15
    11f6:	6fc8      	ldr	r0, [r1, #124]	; 0x7c
    11f8:	4a22      	ldr	r2, [pc, #136]	; (1284 <serial_init+0x170>)
    11fa:	4303      	orrs	r3, r0
    11fc:	67cb      	str	r3, [r1, #124]	; 0x7c
    11fe:	6851      	ldr	r1, [r2, #4]
    1200:	2380      	movs	r3, #128	; 0x80
    1202:	e013      	b.n	122c <serial_init+0x118>
    1204:	2300      	movs	r3, #0
    1206:	722b      	strb	r3, [r5, #8]
    1208:	2380      	movs	r3, #128	; 0x80
    120a:	4a1d      	ldr	r2, [pc, #116]	; (1280 <serial_init+0x16c>)
    120c:	015b      	lsls	r3, r3, #5
    120e:	6fd1      	ldr	r1, [r2, #124]	; 0x7c
    1210:	430b      	orrs	r3, r1
    1212:	67d3      	str	r3, [r2, #124]	; 0x7c
    1214:	e797      	b.n	1146 <serial_init+0x32>
    1216:	2301      	movs	r3, #1
    1218:	722b      	strb	r3, [r5, #8]
    121a:	2380      	movs	r3, #128	; 0x80
    121c:	4918      	ldr	r1, [pc, #96]	; (1280 <serial_init+0x16c>)
    121e:	035b      	lsls	r3, r3, #13
    1220:	6fc8      	ldr	r0, [r1, #124]	; 0x7c
    1222:	4a18      	ldr	r2, [pc, #96]	; (1284 <serial_init+0x170>)
    1224:	4303      	orrs	r3, r0
    1226:	67cb      	str	r3, [r1, #124]	; 0x7c
    1228:	2320      	movs	r3, #32
    122a:	6851      	ldr	r1, [r2, #4]
    122c:	430b      	orrs	r3, r1
    122e:	6053      	str	r3, [r2, #4]
    1230:	e789      	b.n	1146 <serial_init+0x32>
    1232:	2302      	movs	r3, #2
    1234:	722b      	strb	r3, [r5, #8]
    1236:	2380      	movs	r3, #128	; 0x80
    1238:	4911      	ldr	r1, [pc, #68]	; (1280 <serial_init+0x16c>)
    123a:	039b      	lsls	r3, r3, #14
    123c:	6fc8      	ldr	r0, [r1, #124]	; 0x7c
    123e:	4a11      	ldr	r2, [pc, #68]	; (1284 <serial_init+0x170>)
    1240:	4303      	orrs	r3, r0
    1242:	67cb      	str	r3, [r1, #124]	; 0x7c
    1244:	6851      	ldr	r1, [r2, #4]
    1246:	2340      	movs	r3, #64	; 0x40
    1248:	e7f0      	b.n	122c <serial_init+0x118>
    124a:	2382      	movs	r3, #130	; 0x82
    124c:	011b      	lsls	r3, r3, #4
    124e:	606c      	str	r4, [r5, #4]
    1250:	60a3      	str	r3, [r4, #8]
    1252:	2301      	movs	r3, #1
    1254:	6822      	ldr	r2, [r4, #0]
    1256:	4313      	orrs	r3, r2
    1258:	6023      	str	r3, [r4, #0]
    125a:	e77c      	b.n	1156 <serial_init+0x42>
    125c:	f910 0000 	ldrsb.w	r0, [r0, r0]
    1260:	f898 0000 	ldrb.w	r0, [r8]
    1264:	f988 0000 	vst1.8	{d0[0]}, [r8], r0
    1268:	fb2c 0000 	smlad	r0, ip, r0, r0
    126c:	8000      	strh	r0, [r0, #0]
    126e:	4000      	ands	r0, r0
    1270:	025c      	lsls	r4, r3, #9
    1272:	1000      	asrs	r0, r0, #32
    1274:	5d10      	ldrb	r0, [r2, r4]
    1276:	1000      	asrs	r0, r0, #32
    1278:	c000      	stmia	r0!, {}
    127a:	4006      	ands	r6, r0
    127c:	c000      	stmia	r0!, {}
    127e:	4004      	ands	r4, r0
    1280:	8004      	strh	r4, [r0, #0]
    1282:	4004      	ands	r4, r0
    1284:	8000      	strh	r0, [r0, #0]
    1286:	4004      	ands	r4, r0
    1288:	0000      	movs	r0, r0
    128a:	4007      	ands	r7, r0
    128c:	4000      	ands	r0, r0
    128e:	4007      	ands	r7, r0

00001290 <serial_readable>:
serial_readable():
    1290:	7a02      	ldrb	r2, [r0, #8]
    1292:	2301      	movs	r3, #1
    1294:	2a00      	cmp	r2, #0
    1296:	d103      	bne.n	12a0 <serial_readable+0x10>
    1298:	6802      	ldr	r2, [r0, #0]
    129a:	6950      	ldr	r0, [r2, #20]
    129c:	4018      	ands	r0, r3
    129e:	4770      	bx	lr
    12a0:	6842      	ldr	r2, [r0, #4]
    12a2:	6890      	ldr	r0, [r2, #8]
    12a4:	e7fa      	b.n	129c <serial_readable+0xc>

000012a6 <serial_getc>:
serial_getc():
    12a6:	b510      	push	{r4, lr}
    12a8:	0004      	movs	r4, r0
    12aa:	0020      	movs	r0, r4
    12ac:	f7ff fff0 	bl	1290 <serial_readable>
    12b0:	2800      	cmp	r0, #0
    12b2:	d0fa      	beq.n	12aa <serial_getc+0x4>
    12b4:	7a23      	ldrb	r3, [r4, #8]
    12b6:	2b00      	cmp	r3, #0
    12b8:	d102      	bne.n	12c0 <serial_getc+0x1a>
    12ba:	6823      	ldr	r3, [r4, #0]
    12bc:	6818      	ldr	r0, [r3, #0]
    12be:	bd10      	pop	{r4, pc}
    12c0:	6863      	ldr	r3, [r4, #4]
    12c2:	6958      	ldr	r0, [r3, #20]
    12c4:	e7fb      	b.n	12be <serial_getc+0x18>

000012c6 <serial_writable>:
serial_writable():
    12c6:	7a03      	ldrb	r3, [r0, #8]
    12c8:	2b00      	cmp	r3, #0
    12ca:	d104      	bne.n	12d6 <serial_writable+0x10>
    12cc:	6803      	ldr	r3, [r0, #0]
    12ce:	6958      	ldr	r0, [r3, #20]
    12d0:	2320      	movs	r3, #32
    12d2:	4018      	ands	r0, r3
    12d4:	4770      	bx	lr
    12d6:	6843      	ldr	r3, [r0, #4]
    12d8:	6898      	ldr	r0, [r3, #8]
    12da:	2304      	movs	r3, #4
    12dc:	e7f9      	b.n	12d2 <serial_writable+0xc>

000012de <serial_putc>:
serial_putc():
    12de:	b570      	push	{r4, r5, r6, lr}
    12e0:	0004      	movs	r4, r0
    12e2:	000d      	movs	r5, r1
    12e4:	0020      	movs	r0, r4
    12e6:	f7ff ffee 	bl	12c6 <serial_writable>
    12ea:	2800      	cmp	r0, #0
    12ec:	d0fa      	beq.n	12e4 <serial_putc+0x6>
    12ee:	7a23      	ldrb	r3, [r4, #8]
    12f0:	2b00      	cmp	r3, #0
    12f2:	d102      	bne.n	12fa <serial_putc+0x1c>
    12f4:	6823      	ldr	r3, [r4, #0]
    12f6:	601d      	str	r5, [r3, #0]
    12f8:	bd70      	pop	{r4, r5, r6, pc}
    12fa:	6863      	ldr	r3, [r4, #4]
    12fc:	61dd      	str	r5, [r3, #28]
    12fe:	e7fb      	b.n	12f8 <serial_putc+0x1a>

00001300 <pin_function>:
pin_function():
    1300:	b570      	push	{r4, r5, r6, lr}
    1302:	0004      	movs	r4, r0
    1304:	000d      	movs	r5, r1
    1306:	1c43      	adds	r3, r0, #1
    1308:	d104      	bne.n	1314 <pin_function+0x14>
    130a:	2215      	movs	r2, #21
    130c:	4907      	ldr	r1, [pc, #28]	; (132c <pin_function+0x2c>)
    130e:	4808      	ldr	r0, [pc, #32]	; (1330 <pin_function+0x30>)
    1310:	f002 fbbc 	bl	3a8c <mbed_assert_internal>
    1314:	2207      	movs	r2, #7
    1316:	4b07      	ldr	r3, [pc, #28]	; (1334 <pin_function+0x34>)
    1318:	05e4      	lsls	r4, r4, #23
    131a:	0de4      	lsrs	r4, r4, #23
    131c:	18e4      	adds	r4, r4, r3
    131e:	6823      	ldr	r3, [r4, #0]
    1320:	4015      	ands	r5, r2
    1322:	4393      	bics	r3, r2
    1324:	431d      	orrs	r5, r3
    1326:	6025      	str	r5, [r4, #0]
    1328:	bd70      	pop	{r4, r5, r6, pc}
    132a:	46c0      	nop			; (mov r8, r8)
    132c:	fb3c 0000 	smlawb	r0, ip, r0, r0
    1330:	fba7 0000 	umull	r0, r0, r7, r0
    1334:	4000      	ands	r0, r0
    1336:	4004      	ands	r4, r0

00001338 <pin_mode>:
pin_mode():
    1338:	b570      	push	{r4, r5, r6, lr}
    133a:	0004      	movs	r4, r0
    133c:	000d      	movs	r5, r1
    133e:	1c43      	adds	r3, r0, #1
    1340:	d110      	bne.n	1364 <pin_mode+0x2c>
    1342:	221d      	movs	r2, #29
    1344:	490f      	ldr	r1, [pc, #60]	; (1384 <pin_mode+0x4c>)
    1346:	4810      	ldr	r0, [pc, #64]	; (1388 <pin_mode+0x50>)
    1348:	f002 fba0 	bl	3a8c <mbed_assert_internal>
    134c:	05e4      	lsls	r4, r4, #23
    134e:	4b0f      	ldr	r3, [pc, #60]	; (138c <pin_mode+0x54>)
    1350:	0de4      	lsrs	r4, r4, #23
    1352:	18e4      	adds	r4, r4, r3
    1354:	2d04      	cmp	r5, #4
    1356:	d10d      	bne.n	1374 <pin_mode+0x3c>
    1358:	2380      	movs	r3, #128	; 0x80
    135a:	6822      	ldr	r2, [r4, #0]
    135c:	00db      	lsls	r3, r3, #3
    135e:	4313      	orrs	r3, r2
    1360:	6023      	str	r3, [r4, #0]
    1362:	e006      	b.n	1372 <pin_mode+0x3a>
    1364:	2381      	movs	r3, #129	; 0x81
    1366:	011b      	lsls	r3, r3, #4
    1368:	4298      	cmp	r0, r3
    136a:	d002      	beq.n	1372 <pin_mode+0x3a>
    136c:	4b08      	ldr	r3, [pc, #32]	; (1390 <pin_mode+0x58>)
    136e:	4298      	cmp	r0, r3
    1370:	d1ec      	bne.n	134c <pin_mode+0x14>
    1372:	bd70      	pop	{r4, r5, r6, pc}
    1374:	2218      	movs	r2, #24
    1376:	6823      	ldr	r3, [r4, #0]
    1378:	00e9      	lsls	r1, r5, #3
    137a:	4393      	bics	r3, r2
    137c:	4011      	ands	r1, r2
    137e:	4319      	orrs	r1, r3
    1380:	6021      	str	r1, [r4, #0]
    1382:	e7f6      	b.n	1372 <pin_mode+0x3a>
    1384:	fb3c 0000 	smlawb	r0, ip, r0, r0
    1388:	fba7 0000 	umull	r0, r0, r7, r0
    138c:	4000      	ands	r0, r0
    138e:	4004      	ands	r4, r0
    1390:	0a14      	lsrs	r4, r2, #8
	...

00001394 <rtc_init>:
rtc_init():
    1394:	2380      	movs	r3, #128	; 0x80
    1396:	4a0a      	ldr	r2, [pc, #40]	; (13c0 <rtc_init+0x2c>)
    1398:	05db      	lsls	r3, r3, #23
    139a:	6fd1      	ldr	r1, [r2, #124]	; 0x7c
    139c:	430b      	orrs	r3, r1
    139e:	2101      	movs	r1, #1
    13a0:	67d3      	str	r3, [r2, #124]	; 0x7c
    13a2:	4b08      	ldr	r3, [pc, #32]	; (13c4 <rtc_init+0x30>)
    13a4:	681a      	ldr	r2, [r3, #0]
    13a6:	430a      	orrs	r2, r1
    13a8:	601a      	str	r2, [r3, #0]
    13aa:	2200      	movs	r2, #0
    13ac:	609a      	str	r2, [r3, #8]
    13ae:	6818      	ldr	r0, [r3, #0]
    13b0:	3280      	adds	r2, #128	; 0x80
    13b2:	4302      	orrs	r2, r0
    13b4:	601a      	str	r2, [r3, #0]
    13b6:	681a      	ldr	r2, [r3, #0]
    13b8:	438a      	bics	r2, r1
    13ba:	601a      	str	r2, [r3, #0]
    13bc:	4770      	bx	lr
    13be:	46c0      	nop			; (mov r8, r8)
    13c0:	8004      	strh	r4, [r0, #0]
    13c2:	4004      	ands	r4, r0
    13c4:	4000      	ands	r0, r0
    13c6:	4002      	ands	r2, r0

000013c8 <rtc_isenabled>:
rtc_isenabled():
    13c8:	4b02      	ldr	r3, [pc, #8]	; (13d4 <rtc_isenabled+0xc>)
    13ca:	6818      	ldr	r0, [r3, #0]
    13cc:	0600      	lsls	r0, r0, #24
    13ce:	0fc0      	lsrs	r0, r0, #31
    13d0:	4770      	bx	lr
    13d2:	46c0      	nop			; (mov r8, r8)
    13d4:	4000      	ands	r0, r0
    13d6:	4002      	ands	r2, r0

000013d8 <rtc_read>:
rtc_read():
    13d8:	4b01      	ldr	r3, [pc, #4]	; (13e0 <rtc_read+0x8>)
    13da:	2100      	movs	r1, #0
    13dc:	6898      	ldr	r0, [r3, #8]
    13de:	4770      	bx	lr
    13e0:	4000      	ands	r0, r0
    13e2:	4002      	ands	r2, r0

000013e4 <rtc_write>:
rtc_write():
    13e4:	2280      	movs	r2, #128	; 0x80
    13e6:	4b04      	ldr	r3, [pc, #16]	; (13f8 <rtc_write+0x14>)
    13e8:	6819      	ldr	r1, [r3, #0]
    13ea:	4391      	bics	r1, r2
    13ec:	6019      	str	r1, [r3, #0]
    13ee:	6098      	str	r0, [r3, #8]
    13f0:	6819      	ldr	r1, [r3, #0]
    13f2:	430a      	orrs	r2, r1
    13f4:	601a      	str	r2, [r3, #0]
    13f6:	4770      	bx	lr
    13f8:	4000      	ands	r0, r0
    13fa:	4002      	ands	r2, r0

000013fc <gpio_set>:
gpio_set():
    13fc:	b510      	push	{r4, lr}
    13fe:	0004      	movs	r4, r0
    1400:	1c43      	adds	r3, r0, #1
    1402:	d104      	bne.n	140e <gpio_set+0x12>
    1404:	221e      	movs	r2, #30
    1406:	4916      	ldr	r1, [pc, #88]	; (1460 <gpio_set+0x64>)
    1408:	4816      	ldr	r0, [pc, #88]	; (1464 <gpio_set+0x68>)
    140a:	f002 fb3f 	bl	3a8c <mbed_assert_internal>
    140e:	4b16      	ldr	r3, [pc, #88]	; (1468 <gpio_set+0x6c>)
    1410:	681a      	ldr	r2, [r3, #0]
    1412:	2a00      	cmp	r2, #0
    1414:	d106      	bne.n	1424 <gpio_set+0x28>
    1416:	3201      	adds	r2, #1
    1418:	601a      	str	r2, [r3, #0]
    141a:	4a14      	ldr	r2, [pc, #80]	; (146c <gpio_set+0x70>)
    141c:	4b14      	ldr	r3, [pc, #80]	; (1470 <gpio_set+0x74>)
    141e:	6fd1      	ldr	r1, [r2, #124]	; 0x7c
    1420:	430b      	orrs	r3, r1
    1422:	67d3      	str	r3, [r2, #124]	; 0x7c
    1424:	2101      	movs	r1, #1
    1426:	2c00      	cmp	r4, #0
    1428:	d012      	beq.n	1450 <gpio_set+0x54>
    142a:	4b12      	ldr	r3, [pc, #72]	; (1474 <gpio_set+0x78>)
    142c:	429c      	cmp	r4, r3
    142e:	d00f      	beq.n	1450 <gpio_set+0x54>
    1430:	4b11      	ldr	r3, [pc, #68]	; (1478 <gpio_set+0x7c>)
    1432:	429c      	cmp	r4, r3
    1434:	d00c      	beq.n	1450 <gpio_set+0x54>
    1436:	4b11      	ldr	r3, [pc, #68]	; (147c <gpio_set+0x80>)
    1438:	429c      	cmp	r4, r3
    143a:	d009      	beq.n	1450 <gpio_set+0x54>
    143c:	4b10      	ldr	r3, [pc, #64]	; (1480 <gpio_set+0x84>)
    143e:	429c      	cmp	r4, r3
    1440:	d006      	beq.n	1450 <gpio_set+0x54>
    1442:	4b10      	ldr	r3, [pc, #64]	; (1484 <gpio_set+0x88>)
    1444:	429c      	cmp	r4, r3
    1446:	d003      	beq.n	1450 <gpio_set+0x54>
    1448:	4b0f      	ldr	r3, [pc, #60]	; (1488 <gpio_set+0x8c>)
    144a:	18e1      	adds	r1, r4, r3
    144c:	424b      	negs	r3, r1
    144e:	4159      	adcs	r1, r3
    1450:	0020      	movs	r0, r4
    1452:	f7ff ff55 	bl	1300 <pin_function>
    1456:	2001      	movs	r0, #1
    1458:	04a4      	lsls	r4, r4, #18
    145a:	0ee4      	lsrs	r4, r4, #27
    145c:	40a0      	lsls	r0, r4
    145e:	bd10      	pop	{r4, pc}
    1460:	fbba 0000 			; <UNDEFINED> instruction: 0xfbba0000
    1464:	fba7 0000 	umull	r0, r0, r7, r0
    1468:	0260      	lsls	r0, r4, #9
    146a:	1000      	asrs	r0, r0, #32
    146c:	8004      	strh	r4, [r0, #0]
    146e:	4004      	ands	r4, r0
    1470:	0040      	lsls	r0, r0, #1
    1472:	0001      	movs	r1, r0
    1474:	1428      	asrs	r0, r5, #16
    1476:	0000      	movs	r0, r0
    1478:	162c      	asrs	r4, r5, #24
    147a:	0000      	movs	r0, r0
    147c:	1830      	adds	r0, r6, r0
    147e:	0000      	movs	r0, r0
    1480:	1a34      	subs	r4, r6, r0
    1482:	0000      	movs	r0, r0
    1484:	1c38      	adds	r0, r7, #0
    1486:	0000      	movs	r0, r0
    1488:	e1c4      	b.n	1814 <_ZN5YAPFS6selectEv+0x6>
    148a:	ffff  	vsli.32	<illegal reg q13.5>, q8, #31

0000148c <gpio_init>:
gpio_init():
    148c:	b570      	push	{r4, r5, r6, lr}
    148e:	0005      	movs	r5, r0
    1490:	000c      	movs	r4, r1
    1492:	6029      	str	r1, [r5, #0]
    1494:	1c4b      	adds	r3, r1, #1
    1496:	d011      	beq.n	14bc <gpio_init+0x30>
    1498:	0008      	movs	r0, r1
    149a:	f7ff ffaf 	bl	13fc <gpio_set>
    149e:	1424      	asrs	r4, r4, #16
    14a0:	4b07      	ldr	r3, [pc, #28]	; (14c0 <gpio_init+0x34>)
    14a2:	00a4      	lsls	r4, r4, #2
    14a4:	18e3      	adds	r3, r4, r3
    14a6:	60eb      	str	r3, [r5, #12]
    14a8:	4b06      	ldr	r3, [pc, #24]	; (14c4 <gpio_init+0x38>)
    14aa:	6068      	str	r0, [r5, #4]
    14ac:	18e3      	adds	r3, r4, r3
    14ae:	612b      	str	r3, [r5, #16]
    14b0:	4b05      	ldr	r3, [pc, #20]	; (14c8 <gpio_init+0x3c>)
    14b2:	18e3      	adds	r3, r4, r3
    14b4:	616b      	str	r3, [r5, #20]
    14b6:	4b05      	ldr	r3, [pc, #20]	; (14cc <gpio_init+0x40>)
    14b8:	18e4      	adds	r4, r4, r3
    14ba:	60ac      	str	r4, [r5, #8]
    14bc:	bd70      	pop	{r4, r5, r6, pc}
    14be:	46c0      	nop			; (mov r8, r8)
    14c0:	2200      	movs	r2, #0
    14c2:	a000      	add	r0, pc, #0	; (adr r0, 14c4 <gpio_init+0x38>)
    14c4:	2280      	movs	r2, #128	; 0x80
    14c6:	a000      	add	r0, pc, #0	; (adr r0, 14c8 <gpio_init+0x3c>)
    14c8:	2100      	movs	r1, #0
    14ca:	a000      	add	r0, pc, #0	; (adr r0, 14cc <gpio_init+0x40>)
    14cc:	2000      	movs	r0, #0
    14ce:	a000      	add	r0, pc, #0	; (adr r0, 14d0 <gpio_mode>)

000014d0 <gpio_mode>:
gpio_mode():
    14d0:	b510      	push	{r4, lr}
    14d2:	6800      	ldr	r0, [r0, #0]
    14d4:	f7ff ff30 	bl	1338 <pin_mode>
    14d8:	bd10      	pop	{r4, pc}
    14da:	ffff  	vtbl.8	d22, {d15}, d3

000014dc <gpio_dir>:
gpio_dir():
    14dc:	6803      	ldr	r3, [r0, #0]
    14de:	b570      	push	{r4, r5, r6, lr}
    14e0:	0004      	movs	r4, r0
    14e2:	000d      	movs	r5, r1
    14e4:	3301      	adds	r3, #1
    14e6:	d104      	bne.n	14f2 <gpio_dir+0x16>
    14e8:	2243      	movs	r2, #67	; 0x43
    14ea:	490a      	ldr	r1, [pc, #40]	; (1514 <gpio_dir+0x38>)
    14ec:	480a      	ldr	r0, [pc, #40]	; (1518 <gpio_dir+0x3c>)
    14ee:	f002 facd 	bl	3a8c <mbed_assert_internal>
    14f2:	2d00      	cmp	r5, #0
    14f4:	d002      	beq.n	14fc <gpio_dir+0x20>
    14f6:	2d01      	cmp	r5, #1
    14f8:	d006      	beq.n	1508 <gpio_dir+0x2c>
    14fa:	bd70      	pop	{r4, r5, r6, pc}
    14fc:	68a2      	ldr	r2, [r4, #8]
    14fe:	6861      	ldr	r1, [r4, #4]
    1500:	6813      	ldr	r3, [r2, #0]
    1502:	438b      	bics	r3, r1
    1504:	6013      	str	r3, [r2, #0]
    1506:	e7f8      	b.n	14fa <gpio_dir+0x1e>
    1508:	68a2      	ldr	r2, [r4, #8]
    150a:	6861      	ldr	r1, [r4, #4]
    150c:	6813      	ldr	r3, [r2, #0]
    150e:	430b      	orrs	r3, r1
    1510:	e7f8      	b.n	1504 <gpio_dir+0x28>
    1512:	46c0      	nop			; (mov r8, r8)
    1514:	fbba 0000 			; <UNDEFINED> instruction: 0xfbba0000
    1518:	fba2 0000 	umull	r0, r0, r2, r0

0000151c <analogin_init>:
analogin_init():
    151c:	b573      	push	{r0, r1, r4, r5, r6, lr}
    151e:	000c      	movs	r4, r1
    1520:	4d20      	ldr	r5, [pc, #128]	; (15a4 <analogin_init+0x88>)
    1522:	0006      	movs	r6, r0
    1524:	0029      	movs	r1, r5
    1526:	0020      	movs	r0, r4
    1528:	f002 fa54 	bl	39d4 <pinmap_peripheral>
    152c:	b2c0      	uxtb	r0, r0
    152e:	7030      	strb	r0, [r6, #0]
    1530:	28ff      	cmp	r0, #255	; 0xff
    1532:	d104      	bne.n	153e <analogin_init+0x22>
    1534:	2235      	movs	r2, #53	; 0x35
    1536:	491c      	ldr	r1, [pc, #112]	; (15a8 <analogin_init+0x8c>)
    1538:	481c      	ldr	r0, [pc, #112]	; (15ac <analogin_init+0x90>)
    153a:	f002 faa7 	bl	3a8c <mbed_assert_internal>
    153e:	0020      	movs	r0, r4
    1540:	0029      	movs	r1, r5
    1542:	f002 fa0f 	bl	3964 <pinmap_pinout>
    1546:	2280      	movs	r2, #128	; 0x80
    1548:	4b19      	ldr	r3, [pc, #100]	; (15b0 <analogin_init+0x94>)
    154a:	05e4      	lsls	r4, r4, #23
    154c:	0de4      	lsrs	r4, r4, #23
    154e:	18e4      	adds	r4, r4, r3
    1550:	6823      	ldr	r3, [r4, #0]
    1552:	4918      	ldr	r1, [pc, #96]	; (15b4 <analogin_init+0x98>)
    1554:	4393      	bics	r3, r2
    1556:	32b9      	adds	r2, #185	; 0xb9
    1558:	6023      	str	r3, [r4, #0]
    155a:	32ff      	adds	r2, #255	; 0xff
    155c:	588b      	ldr	r3, [r1, r2]
    155e:	4816      	ldr	r0, [pc, #88]	; (15b8 <analogin_init+0x9c>)
    1560:	4003      	ands	r3, r0
    1562:	2010      	movs	r0, #16
    1564:	9301      	str	r3, [sp, #4]
    1566:	9b01      	ldr	r3, [sp, #4]
    1568:	4383      	bics	r3, r0
    156a:	9301      	str	r3, [sp, #4]
    156c:	23c8      	movs	r3, #200	; 0xc8
    156e:	9801      	ldr	r0, [sp, #4]
    1570:	021b      	lsls	r3, r3, #8
    1572:	4303      	orrs	r3, r0
    1574:	508b      	str	r3, [r1, r2]
    1576:	2380      	movs	r3, #128	; 0x80
    1578:	4a10      	ldr	r2, [pc, #64]	; (15bc <analogin_init+0xa0>)
    157a:	019b      	lsls	r3, r3, #6
    157c:	6fd1      	ldr	r1, [r2, #124]	; 0x7c
    157e:	430b      	orrs	r3, r1
    1580:	67d3      	str	r3, [r2, #124]	; 0x7c
    1582:	4b0f      	ldr	r3, [pc, #60]	; (15c0 <analogin_init+0xa4>)
    1584:	490f      	ldr	r1, [pc, #60]	; (15c4 <analogin_init+0xa8>)
    1586:	6818      	ldr	r0, [r3, #0]
    1588:	f00b fa6c 	bl	ca64 <__udivsi3>
    158c:	2180      	movs	r1, #128	; 0x80
    158e:	3801      	subs	r0, #1
    1590:	b2c0      	uxtb	r0, r0
    1592:	05c9      	lsls	r1, r1, #23
    1594:	4b0c      	ldr	r3, [pc, #48]	; (15c8 <analogin_init+0xac>)
    1596:	4308      	orrs	r0, r1
    1598:	6018      	str	r0, [r3, #0]
    159a:	681a      	ldr	r2, [r3, #0]
    159c:	400a      	ands	r2, r1
    159e:	d1fc      	bne.n	159a <analogin_init+0x7e>
    15a0:	601a      	str	r2, [r3, #0]
    15a2:	bd73      	pop	{r0, r1, r4, r5, r6, pc}
    15a4:	fc24 0000 	stc2	0, cr0, [r4], #-0
    15a8:	fcc0 0000 	stc2l	0, cr0, [r0], {0}
    15ac:	fd2c 0000 	stc2	0, cr0, [ip, #-0]
    15b0:	4000      	ands	r0, r0
    15b2:	4004      	ands	r4, r0
    15b4:	8000      	strh	r0, [r0, #0]
    15b6:	4004      	ands	r4, r0
    15b8:	25ff      	movs	r5, #255	; 0xff
    15ba:	0000      	movs	r0, r0
    15bc:	8004      	strh	r4, [r0, #0]
    15be:	4004      	ands	r4, r0
    15c0:	0104      	lsls	r4, r0, #4
    15c2:	1000      	asrs	r0, r0, #32
    15c4:	a120      	add	r1, pc, #128	; (adr r1, 1648 <SystemInit+0x40>)
    15c6:	0007      	movs	r7, r0
    15c8:	c000      	stmia	r0!, {}
    15ca:	4001      	ands	r1, r0

000015cc <NVIC_SetVector>:
NVIC_SetVector():
    15cc:	b5f0      	push	{r4, r5, r6, r7, lr}
    15ce:	4c0c      	ldr	r4, [pc, #48]	; (1600 <NVIC_SetVector+0x34>)
    15d0:	68a5      	ldr	r5, [r4, #8]
    15d2:	68a6      	ldr	r6, [r4, #8]
    15d4:	002b      	movs	r3, r5
    15d6:	2e00      	cmp	r6, #0
    15d8:	d10d      	bne.n	15f6 <NVIC_SetVector+0x2a>
    15da:	2380      	movs	r3, #128	; 0x80
    15dc:	4e09      	ldr	r6, [pc, #36]	; (1604 <NVIC_SetVector+0x38>)
    15de:	055b      	lsls	r3, r3, #21
    15e0:	27f0      	movs	r7, #240	; 0xf0
    15e2:	18ea      	adds	r2, r5, r3
    15e4:	063f      	lsls	r7, r7, #24
    15e6:	19d2      	adds	r2, r2, r7
    15e8:	6812      	ldr	r2, [r2, #0]
    15ea:	c304      	stmia	r3!, {r2}
    15ec:	42b3      	cmp	r3, r6
    15ee:	d1f7      	bne.n	15e0 <NVIC_SetVector+0x14>
    15f0:	2380      	movs	r3, #128	; 0x80
    15f2:	055b      	lsls	r3, r3, #21
    15f4:	60a3      	str	r3, [r4, #8]
    15f6:	3010      	adds	r0, #16
    15f8:	0080      	lsls	r0, r0, #2
    15fa:	50c1      	str	r1, [r0, r3]
    15fc:	bdf0      	pop	{r4, r5, r6, r7, pc}
    15fe:	46c0      	nop			; (mov r8, r8)
    1600:	ed00 e000 	stc	0, cr14, [r0, #-0]
    1604:	00c0      	lsls	r0, r0, #3
    1606:	1000      	asrs	r0, r0, #32

00001608 <SystemInit>:
SystemInit():
    1608:	2280      	movs	r2, #128	; 0x80
    160a:	493e      	ldr	r1, [pc, #248]	; (1704 <SystemInit+0xfc>)
    160c:	0252      	lsls	r2, r2, #9
    160e:	6fc8      	ldr	r0, [r1, #124]	; 0x7c
    1610:	b530      	push	{r4, r5, lr}
    1612:	4302      	orrs	r2, r0
    1614:	67ca      	str	r2, [r1, #124]	; 0x7c
    1616:	2225      	movs	r2, #37	; 0x25
    1618:	2000      	movs	r0, #0
    161a:	248e      	movs	r4, #142	; 0x8e
    161c:	2520      	movs	r5, #32
    161e:	4b3a      	ldr	r3, [pc, #232]	; (1708 <SystemInit+0x100>)
    1620:	493a      	ldr	r1, [pc, #232]	; (170c <SystemInit+0x104>)
    1622:	609a      	str	r2, [r3, #8]
    1624:	3a24      	subs	r2, #36	; 0x24
    1626:	600a      	str	r2, [r1, #0]
    1628:	4939      	ldr	r1, [pc, #228]	; (1710 <SystemInit+0x108>)
    162a:	00a4      	lsls	r4, r4, #2
    162c:	600a      	str	r2, [r1, #0]
    162e:	6218      	str	r0, [r3, #32]
    1630:	591a      	ldr	r2, [r3, r4]
    1632:	4938      	ldr	r1, [pc, #224]	; (1714 <SystemInit+0x10c>)
    1634:	b085      	sub	sp, #20
    1636:	400a      	ands	r2, r1
    1638:	9201      	str	r2, [sp, #4]
    163a:	9a01      	ldr	r2, [sp, #4]
    163c:	43aa      	bics	r2, r5
    163e:	9201      	str	r2, [sp, #4]
    1640:	22c8      	movs	r2, #200	; 0xc8
    1642:	9d01      	ldr	r5, [sp, #4]
    1644:	0212      	lsls	r2, r2, #8
    1646:	432a      	orrs	r2, r5
    1648:	511a      	str	r2, [r3, r4]
    164a:	9000      	str	r0, [sp, #0]
    164c:	4832      	ldr	r0, [pc, #200]	; (1718 <SystemInit+0x110>)
    164e:	9a00      	ldr	r2, [sp, #0]
    1650:	4282      	cmp	r2, r0
    1652:	d951      	bls.n	16f8 <SystemInit+0xf0>
    1654:	2201      	movs	r2, #1
    1656:	2000      	movs	r0, #0
    1658:	641a      	str	r2, [r3, #64]	; 0x40
    165a:	645a      	str	r2, [r3, #68]	; 0x44
    165c:	6458      	str	r0, [r3, #68]	; 0x44
    165e:	645a      	str	r2, [r3, #68]	; 0x44
    1660:	6c58      	ldr	r0, [r3, #68]	; 0x44
    1662:	4210      	tst	r0, r2
    1664:	d0fc      	beq.n	1660 <SystemInit+0x58>
    1666:	228e      	movs	r2, #142	; 0x8e
    1668:	2580      	movs	r5, #128	; 0x80
    166a:	0092      	lsls	r2, r2, #2
    166c:	5898      	ldr	r0, [r3, r2]
    166e:	4008      	ands	r0, r1
    1670:	9003      	str	r0, [sp, #12]
    1672:	9803      	ldr	r0, [sp, #12]
    1674:	4328      	orrs	r0, r5
    1676:	9003      	str	r0, [sp, #12]
    1678:	20c8      	movs	r0, #200	; 0xc8
    167a:	9c03      	ldr	r4, [sp, #12]
    167c:	0200      	lsls	r0, r0, #8
    167e:	4304      	orrs	r4, r0
    1680:	509c      	str	r4, [r3, r2]
    1682:	2425      	movs	r4, #37	; 0x25
    1684:	609c      	str	r4, [r3, #8]
    1686:	589c      	ldr	r4, [r3, r2]
    1688:	4021      	ands	r1, r4
    168a:	9102      	str	r1, [sp, #8]
    168c:	9902      	ldr	r1, [sp, #8]
    168e:	43a9      	bics	r1, r5
    1690:	9102      	str	r1, [sp, #8]
    1692:	9902      	ldr	r1, [sp, #8]
    1694:	4308      	orrs	r0, r1
    1696:	5098      	str	r0, [r3, r2]
    1698:	2201      	movs	r2, #1
    169a:	68d9      	ldr	r1, [r3, #12]
    169c:	4211      	tst	r1, r2
    169e:	d0fc      	beq.n	169a <SystemInit+0x92>
    16a0:	2103      	movs	r1, #3
    16a2:	6719      	str	r1, [r3, #112]	; 0x70
    16a4:	2100      	movs	r1, #0
    16a6:	675a      	str	r2, [r3, #116]	; 0x74
    16a8:	6759      	str	r1, [r3, #116]	; 0x74
    16aa:	675a      	str	r2, [r3, #116]	; 0x74
    16ac:	2201      	movs	r2, #1
    16ae:	6f59      	ldr	r1, [r3, #116]	; 0x74
    16b0:	4211      	tst	r1, r2
    16b2:	d0fc      	beq.n	16ae <SystemInit+0xa6>
    16b4:	218e      	movs	r1, #142	; 0x8e
    16b6:	679a      	str	r2, [r3, #120]	; 0x78
    16b8:	0089      	lsls	r1, r1, #2
    16ba:	5858      	ldr	r0, [r3, r1]
    16bc:	4c17      	ldr	r4, [pc, #92]	; (171c <SystemInit+0x114>)
    16be:	4020      	ands	r0, r4
    16c0:	5058      	str	r0, [r3, r1]
    16c2:	5858      	ldr	r0, [r3, r1]
    16c4:	4c16      	ldr	r4, [pc, #88]	; (1720 <SystemInit+0x118>)
    16c6:	4020      	ands	r0, r4
    16c8:	5058      	str	r0, [r3, r1]
    16ca:	2100      	movs	r1, #0
    16cc:	649a      	str	r2, [r3, #72]	; 0x48
    16ce:	64da      	str	r2, [r3, #76]	; 0x4c
    16d0:	64d9      	str	r1, [r3, #76]	; 0x4c
    16d2:	64da      	str	r2, [r3, #76]	; 0x4c
    16d4:	2201      	movs	r2, #1
    16d6:	6cd9      	ldr	r1, [r3, #76]	; 0x4c
    16d8:	4211      	tst	r1, r2
    16da:	d0fc      	beq.n	16d6 <SystemInit+0xce>
    16dc:	2225      	movs	r2, #37	; 0x25
    16de:	611a      	str	r2, [r3, #16]
    16e0:	3a24      	subs	r2, #36	; 0x24
    16e2:	6959      	ldr	r1, [r3, #20]
    16e4:	4211      	tst	r1, r2
    16e6:	d0fc      	beq.n	16e2 <SystemInit+0xda>
    16e8:	2100      	movs	r1, #0
    16ea:	4b0e      	ldr	r3, [pc, #56]	; (1724 <SystemInit+0x11c>)
    16ec:	6019      	str	r1, [r3, #0]
    16ee:	6019      	str	r1, [r3, #0]
    16f0:	4b0d      	ldr	r3, [pc, #52]	; (1728 <SystemInit+0x120>)
    16f2:	601a      	str	r2, [r3, #0]
    16f4:	b005      	add	sp, #20
    16f6:	bd30      	pop	{r4, r5, pc}
    16f8:	46c0      	nop			; (mov r8, r8)
    16fa:	9a00      	ldr	r2, [sp, #0]
    16fc:	3201      	adds	r2, #1
    16fe:	9200      	str	r2, [sp, #0]
    1700:	e7a5      	b.n	164e <SystemInit+0x46>
    1702:	46c0      	nop			; (mov r8, r8)
    1704:	8004      	strh	r4, [r0, #0]
    1706:	4004      	ands	r4, r0
    1708:	8000      	strh	r0, [r0, #0]
    170a:	4004      	ands	r4, r0
    170c:	40f0      	lsrs	r0, r6
    170e:	4004      	ands	r4, r0
    1710:	40f4      	lsrs	r4, r6
    1712:	4004      	ands	r4, r0
    1714:	25ff      	movs	r5, #255	; 0xff
    1716:	0000      	movs	r0, r0
    1718:	09c3      	lsrs	r3, r0, #7
    171a:	0000      	movs	r0, r0
    171c:	fbff ffff 			; <UNDEFINED> instruction: 0xfbffffff
    1720:	feff ffff 	mrc2	15, 7, pc, cr15, cr15, {7}
    1724:	80c0      	strh	r0, [r0, #6]
    1726:	4004      	ands	r4, r0
    1728:	80c8      	strh	r0, [r1, #6]
    172a:	4004      	ands	r4, r0

0000172c <_ZN5YAPFS10ff_convertEtj>:
_ZN5YAPFS10ff_convertEtj():
    172c:	287f      	cmp	r0, #127	; 0x7f
    172e:	d907      	bls.n	1740 <_ZN5YAPFS10ff_convertEtj+0x14>
    1730:	2900      	cmp	r1, #0
    1732:	d006      	beq.n	1742 <_ZN5YAPFS10ff_convertEtj+0x16>
    1734:	28ff      	cmp	r0, #255	; 0xff
    1736:	d810      	bhi.n	175a <_ZN5YAPFS10ff_convertEtj+0x2e>
    1738:	3880      	subs	r0, #128	; 0x80
    173a:	4b09      	ldr	r3, [pc, #36]	; (1760 <_ZN5YAPFS10ff_convertEtj+0x34>)
    173c:	0040      	lsls	r0, r0, #1
    173e:	5ac0      	ldrh	r0, [r0, r3]
    1740:	4770      	bx	lr
    1742:	4b07      	ldr	r3, [pc, #28]	; (1760 <_ZN5YAPFS10ff_convertEtj+0x34>)
    1744:	881a      	ldrh	r2, [r3, #0]
    1746:	4282      	cmp	r2, r0
    1748:	d004      	beq.n	1754 <_ZN5YAPFS10ff_convertEtj+0x28>
    174a:	3101      	adds	r1, #1
    174c:	b289      	uxth	r1, r1
    174e:	3302      	adds	r3, #2
    1750:	2980      	cmp	r1, #128	; 0x80
    1752:	d1f7      	bne.n	1744 <_ZN5YAPFS10ff_convertEtj+0x18>
    1754:	3180      	adds	r1, #128	; 0x80
    1756:	b2c8      	uxtb	r0, r1
    1758:	e7f2      	b.n	1740 <_ZN5YAPFS10ff_convertEtj+0x14>
    175a:	2000      	movs	r0, #0
    175c:	e7f0      	b.n	1740 <_ZN5YAPFS10ff_convertEtj+0x14>
    175e:	46c0      	nop			; (mov r8, r8)
    1760:	fd44 0000 	stc2l	0, cr0, [r4, #-0]

00001764 <_ZN5YAPFS11ff_wtoupperEt>:
_ZN5YAPFS11ff_wtoupperEt():
    1764:	2300      	movs	r3, #0
    1766:	b510      	push	{r4, lr}
    1768:	4c05      	ldr	r4, [pc, #20]	; (1780 <_ZN5YAPFS11ff_wtoupperEt+0x1c>)
    176a:	005a      	lsls	r2, r3, #1
    176c:	5aa1      	ldrh	r1, [r4, r2]
    176e:	2900      	cmp	r1, #0
    1770:	d005      	beq.n	177e <_ZN5YAPFS11ff_wtoupperEt+0x1a>
    1772:	4281      	cmp	r1, r0
    1774:	d001      	beq.n	177a <_ZN5YAPFS11ff_wtoupperEt+0x16>
    1776:	3301      	adds	r3, #1
    1778:	e7f7      	b.n	176a <_ZN5YAPFS11ff_wtoupperEt+0x6>
    177a:	4b02      	ldr	r3, [pc, #8]	; (1784 <_ZN5YAPFS11ff_wtoupperEt+0x20>)
    177c:	5ad0      	ldrh	r0, [r2, r3]
    177e:	bd10      	pop	{r4, pc}
    1780:	fe44 0000 	cdp2	0, 4, cr0, cr4, cr0, {0}
    1784:	0024      	movs	r4, r4
    1786:	0001      	movs	r1, r0

00001788 <_ZN5YAPFSL10m_SpiwriteEi>:
_ZN5YAPFSL10m_SpiwriteEi():
    1788:	4b08      	ldr	r3, [pc, #32]	; (17ac <_ZN5YAPFSL10m_SpiwriteEi+0x24>)
    178a:	b510      	push	{r4, lr}
    178c:	2202      	movs	r2, #2
    178e:	001c      	movs	r4, r3
    1790:	7819      	ldrb	r1, [r3, #0]
    1792:	4211      	tst	r1, r2
    1794:	d0fc      	beq.n	1790 <_ZN5YAPFSL10m_SpiwriteEi+0x8>
    1796:	2204      	movs	r2, #4
    1798:	4b05      	ldr	r3, [pc, #20]	; (17b0 <_ZN5YAPFSL10m_SpiwriteEi+0x28>)
    179a:	b2c0      	uxtb	r0, r0
    179c:	7018      	strb	r0, [r3, #0]
    179e:	7821      	ldrb	r1, [r4, #0]
    17a0:	4211      	tst	r1, r2
    17a2:	d0fc      	beq.n	179e <_ZN5YAPFSL10m_SpiwriteEi+0x16>
    17a4:	7818      	ldrb	r0, [r3, #0]
    17a6:	b2c0      	uxtb	r0, r0
    17a8:	bd10      	pop	{r4, pc}
    17aa:	46c0      	nop			; (mov r8, r8)
    17ac:	000c      	movs	r4, r1
    17ae:	4004      	ands	r4, r0
    17b0:	0008      	movs	r0, r1
    17b2:	4004      	ands	r4, r0

000017b4 <_ZN5YAPFS9waitReadyEi.isra.0>:
_ZN5YAPFS9waitReadyEi.isra.0():
    17b4:	b510      	push	{r4, lr}
    17b6:	20ff      	movs	r0, #255	; 0xff
    17b8:	f7ff ffe6 	bl	1788 <_ZN5YAPFSL10m_SpiwriteEi>
    17bc:	b2c0      	uxtb	r0, r0
    17be:	2800      	cmp	r0, #0
    17c0:	d0f9      	beq.n	17b6 <_ZN5YAPFS9waitReadyEi.isra.0+0x2>
    17c2:	2001      	movs	r0, #1
    17c4:	bd10      	pop	{r4, pc}
    17c6:	ffff  	vaddw.u<illegal width 64>	q9, <illegal reg q7.5>, d2

000017c8 <_ZN5YAPFSL12m_SpiSetBitsEi>:
_ZN5YAPFSL12m_SpiSetBitsEi():
    17c8:	2102      	movs	r1, #2
    17ca:	b510      	push	{r4, lr}
    17cc:	240f      	movs	r4, #15
    17ce:	4b06      	ldr	r3, [pc, #24]	; (17e8 <_ZN5YAPFSL12m_SpiSetBitsEi+0x20>)
    17d0:	3801      	subs	r0, #1
    17d2:	685a      	ldr	r2, [r3, #4]
    17d4:	438a      	bics	r2, r1
    17d6:	605a      	str	r2, [r3, #4]
    17d8:	681a      	ldr	r2, [r3, #0]
    17da:	43a2      	bics	r2, r4
    17dc:	4302      	orrs	r2, r0
    17de:	601a      	str	r2, [r3, #0]
    17e0:	685a      	ldr	r2, [r3, #4]
    17e2:	4311      	orrs	r1, r2
    17e4:	6059      	str	r1, [r3, #4]
    17e6:	bd10      	pop	{r4, pc}
    17e8:	0000      	movs	r0, r0
    17ea:	4004      	ands	r4, r0

000017ec <_ZN5YAPFS11get_fattimeEv>:
_ZN5YAPFS11get_fattimeEv():
    17ec:	4b01      	ldr	r3, [pc, #4]	; (17f4 <_ZN5YAPFS11get_fattimeEv+0x8>)
    17ee:	6818      	ldr	r0, [r3, #0]
    17f0:	4770      	bx	lr
    17f2:	46c0      	nop			; (mov r8, r8)
    17f4:	4008      	ands	r0, r1
    17f6:	4002      	ands	r2, r0

000017f8 <_ZN5YAPFS8deselectEv>:
_ZN5YAPFS8deselectEv():
    17f8:	22a0      	movs	r2, #160	; 0xa0
    17fa:	2388      	movs	r3, #136	; 0x88
    17fc:	2180      	movs	r1, #128	; 0x80
    17fe:	b510      	push	{r4, lr}
    1800:	0612      	lsls	r2, r2, #24
    1802:	019b      	lsls	r3, r3, #6
    1804:	50d1      	str	r1, [r2, r3]
    1806:	20ff      	movs	r0, #255	; 0xff
    1808:	f7ff ffbe 	bl	1788 <_ZN5YAPFSL10m_SpiwriteEi>
    180c:	bd10      	pop	{r4, pc}

0000180e <_ZN5YAPFS6selectEv>:
_ZN5YAPFS6selectEv():
    180e:	22a0      	movs	r2, #160	; 0xa0
    1810:	238a      	movs	r3, #138	; 0x8a
    1812:	2180      	movs	r1, #128	; 0x80
    1814:	0612      	lsls	r2, r2, #24
    1816:	019b      	lsls	r3, r3, #6
    1818:	b510      	push	{r4, lr}
    181a:	20ff      	movs	r0, #255	; 0xff
    181c:	50d1      	str	r1, [r2, r3]
    181e:	f7ff ffb3 	bl	1788 <_ZN5YAPFSL10m_SpiwriteEi>
    1822:	f7ff ffc7 	bl	17b4 <_ZN5YAPFS9waitReadyEi.isra.0>
    1826:	1e04      	subs	r4, r0, #0
    1828:	d101      	bne.n	182e <_ZN5YAPFS6selectEv+0x20>
    182a:	f7ff ffe5 	bl	17f8 <_ZN5YAPFS8deselectEv>
    182e:	0020      	movs	r0, r4
    1830:	bd10      	pop	{r4, pc}

00001832 <_ZN5YAPFS12writeCommandEcjPj>:
_ZN5YAPFS12writeCommandEcjPj():
    1832:	b5f0      	push	{r4, r5, r6, r7, lr}
    1834:	0e0b      	lsrs	r3, r1, #24
    1836:	b089      	sub	sp, #36	; 0x24
    1838:	9302      	str	r3, [sp, #8]
    183a:	0c0b      	lsrs	r3, r1, #16
    183c:	b2db      	uxtb	r3, r3
    183e:	9303      	str	r3, [sp, #12]
    1840:	0a0b      	lsrs	r3, r1, #8
    1842:	b2db      	uxtb	r3, r3
    1844:	9304      	str	r3, [sp, #16]
    1846:	2303      	movs	r3, #3
    1848:	9301      	str	r3, [sp, #4]
    184a:	0003      	movs	r3, r0
    184c:	0006      	movs	r6, r0
    184e:	000f      	movs	r7, r1
    1850:	0015      	movs	r5, r2
    1852:	3b56      	subs	r3, #86	; 0x56
    1854:	b2db      	uxtb	r3, r3
    1856:	9305      	str	r3, [sp, #20]
    1858:	9b05      	ldr	r3, [sp, #20]
    185a:	2b01      	cmp	r3, #1
    185c:	d932      	bls.n	18c4 <_ZN5YAPFS12writeCommandEcjPj+0x92>
    185e:	0033      	movs	r3, r6
    1860:	3b69      	subs	r3, #105	; 0x69
    1862:	2b01      	cmp	r3, #1
    1864:	d92e      	bls.n	18c4 <_ZN5YAPFS12writeCommandEcjPj+0x92>
    1866:	9a02      	ldr	r2, [sp, #8]
    1868:	ab06      	add	r3, sp, #24
    186a:	705a      	strb	r2, [r3, #1]
    186c:	9a03      	ldr	r2, [sp, #12]
    186e:	701e      	strb	r6, [r3, #0]
    1870:	709a      	strb	r2, [r3, #2]
    1872:	9a04      	ldr	r2, [sp, #16]
    1874:	711f      	strb	r7, [r3, #4]
    1876:	70da      	strb	r2, [r3, #3]
    1878:	2e40      	cmp	r6, #64	; 0x40
    187a:	d135      	bne.n	18e8 <_ZN5YAPFS12writeCommandEcjPj+0xb6>
    187c:	2395      	movs	r3, #149	; 0x95
    187e:	aa06      	add	r2, sp, #24
    1880:	7153      	strb	r3, [r2, #5]
    1882:	2400      	movs	r4, #0
    1884:	ab06      	add	r3, sp, #24
    1886:	5ce0      	ldrb	r0, [r4, r3]
    1888:	3401      	adds	r4, #1
    188a:	f7ff ff7d 	bl	1788 <_ZN5YAPFSL10m_SpiwriteEi>
    188e:	2c06      	cmp	r4, #6
    1890:	d1f8      	bne.n	1884 <_ZN5YAPFS12writeCommandEcjPj+0x52>
    1892:	2e4c      	cmp	r6, #76	; 0x4c
    1894:	d102      	bne.n	189c <_ZN5YAPFS12writeCommandEcjPj+0x6a>
    1896:	20ff      	movs	r0, #255	; 0xff
    1898:	f7ff ff76 	bl	1788 <_ZN5YAPFSL10m_SpiwriteEi>
    189c:	2409      	movs	r4, #9
    189e:	20ff      	movs	r0, #255	; 0xff
    18a0:	f7ff ff72 	bl	1788 <_ZN5YAPFSL10m_SpiwriteEi>
    18a4:	0603      	lsls	r3, r0, #24
    18a6:	d502      	bpl.n	18ae <_ZN5YAPFS12writeCommandEcjPj+0x7c>
    18a8:	3c01      	subs	r4, #1
    18aa:	2c00      	cmp	r4, #0
    18ac:	d1f7      	bne.n	189e <_ZN5YAPFS12writeCommandEcjPj+0x6c>
    18ae:	b2c4      	uxtb	r4, r0
    18b0:	2cff      	cmp	r4, #255	; 0xff
    18b2:	d016      	beq.n	18e2 <_ZN5YAPFS12writeCommandEcjPj+0xb0>
    18b4:	0723      	lsls	r3, r4, #28
    18b6:	d51f      	bpl.n	18f8 <_ZN5YAPFS12writeCommandEcjPj+0xc6>
    18b8:	9b01      	ldr	r3, [sp, #4]
    18ba:	3b01      	subs	r3, #1
    18bc:	9301      	str	r3, [sp, #4]
    18be:	2b00      	cmp	r3, #0
    18c0:	d00f      	beq.n	18e2 <_ZN5YAPFS12writeCommandEcjPj+0xb0>
    18c2:	e7c9      	b.n	1858 <_ZN5YAPFS12writeCommandEcjPj+0x26>
    18c4:	2200      	movs	r2, #0
    18c6:	2077      	movs	r0, #119	; 0x77
    18c8:	0011      	movs	r1, r2
    18ca:	f7ff ffb2 	bl	1832 <_ZN5YAPFS12writeCommandEcjPj>
    18ce:	0004      	movs	r4, r0
    18d0:	2801      	cmp	r0, #1
    18d2:	d806      	bhi.n	18e2 <_ZN5YAPFS12writeCommandEcjPj+0xb0>
    18d4:	f7ff ff90 	bl	17f8 <_ZN5YAPFS8deselectEv>
    18d8:	f7ff ff99 	bl	180e <_ZN5YAPFS6selectEv>
    18dc:	2800      	cmp	r0, #0
    18de:	d1c2      	bne.n	1866 <_ZN5YAPFS12writeCommandEcjPj+0x34>
    18e0:	24ff      	movs	r4, #255	; 0xff
    18e2:	0020      	movs	r0, r4
    18e4:	b009      	add	sp, #36	; 0x24
    18e6:	bdf0      	pop	{r4, r5, r6, r7, pc}
    18e8:	2e48      	cmp	r6, #72	; 0x48
    18ea:	d101      	bne.n	18f0 <_ZN5YAPFS12writeCommandEcjPj+0xbe>
    18ec:	2387      	movs	r3, #135	; 0x87
    18ee:	e7c6      	b.n	187e <_ZN5YAPFS12writeCommandEcjPj+0x4c>
    18f0:	2201      	movs	r2, #1
    18f2:	ab06      	add	r3, sp, #24
    18f4:	715a      	strb	r2, [r3, #5]
    18f6:	e7c4      	b.n	1882 <_ZN5YAPFS12writeCommandEcjPj+0x50>
    18f8:	2c01      	cmp	r4, #1
    18fa:	d8f2      	bhi.n	18e2 <_ZN5YAPFS12writeCommandEcjPj+0xb0>
    18fc:	2e4d      	cmp	r6, #77	; 0x4d
    18fe:	d106      	bne.n	190e <_ZN5YAPFS12writeCommandEcjPj+0xdc>
    1900:	2d00      	cmp	r5, #0
    1902:	d0ee      	beq.n	18e2 <_ZN5YAPFS12writeCommandEcjPj+0xb0>
    1904:	20ff      	movs	r0, #255	; 0xff
    1906:	f7ff ff3f 	bl	1788 <_ZN5YAPFSL10m_SpiwriteEi>
    190a:	6028      	str	r0, [r5, #0]
    190c:	e7e9      	b.n	18e2 <_ZN5YAPFS12writeCommandEcjPj+0xb0>
    190e:	2e48      	cmp	r6, #72	; 0x48
    1910:	d001      	beq.n	1916 <_ZN5YAPFS12writeCommandEcjPj+0xe4>
    1912:	2e7a      	cmp	r6, #122	; 0x7a
    1914:	d1e5      	bne.n	18e2 <_ZN5YAPFS12writeCommandEcjPj+0xb0>
    1916:	2d00      	cmp	r5, #0
    1918:	d0e3      	beq.n	18e2 <_ZN5YAPFS12writeCommandEcjPj+0xb0>
    191a:	20ff      	movs	r0, #255	; 0xff
    191c:	f7ff ff34 	bl	1788 <_ZN5YAPFSL10m_SpiwriteEi>
    1920:	0600      	lsls	r0, r0, #24
    1922:	6028      	str	r0, [r5, #0]
    1924:	20ff      	movs	r0, #255	; 0xff
    1926:	f7ff ff2f 	bl	1788 <_ZN5YAPFSL10m_SpiwriteEi>
    192a:	682b      	ldr	r3, [r5, #0]
    192c:	0400      	lsls	r0, r0, #16
    192e:	4318      	orrs	r0, r3
    1930:	6028      	str	r0, [r5, #0]
    1932:	20ff      	movs	r0, #255	; 0xff
    1934:	f7ff ff28 	bl	1788 <_ZN5YAPFSL10m_SpiwriteEi>
    1938:	682b      	ldr	r3, [r5, #0]
    193a:	0200      	lsls	r0, r0, #8
    193c:	4318      	orrs	r0, r3
    193e:	6028      	str	r0, [r5, #0]
    1940:	20ff      	movs	r0, #255	; 0xff
    1942:	f7ff ff21 	bl	1788 <_ZN5YAPFSL10m_SpiwriteEi>
    1946:	682b      	ldr	r3, [r5, #0]
    1948:	4318      	orrs	r0, r3
    194a:	e7de      	b.n	190a <_ZN5YAPFS12writeCommandEcjPj+0xd8>

0000194c <_ZN5YAPFS18commandTransactionEcjPj>:
_ZN5YAPFS18commandTransactionEcjPj():
    194c:	b5f8      	push	{r3, r4, r5, r6, r7, lr}
    194e:	0005      	movs	r5, r0
    1950:	000e      	movs	r6, r1
    1952:	0017      	movs	r7, r2
    1954:	f7ff ff5b 	bl	180e <_ZN5YAPFS6selectEv>
    1958:	24ff      	movs	r4, #255	; 0xff
    195a:	2800      	cmp	r0, #0
    195c:	d007      	beq.n	196e <_ZN5YAPFS18commandTransactionEcjPj+0x22>
    195e:	003a      	movs	r2, r7
    1960:	0031      	movs	r1, r6
    1962:	0028      	movs	r0, r5
    1964:	f7ff ff65 	bl	1832 <_ZN5YAPFS12writeCommandEcjPj>
    1968:	0004      	movs	r4, r0
    196a:	f7ff ff45 	bl	17f8 <_ZN5YAPFS8deselectEv>
    196e:	0020      	movs	r0, r4
    1970:	bdf8      	pop	{r3, r4, r5, r6, r7, pc}
    1972:	ffff  	vsli.32	<illegal reg q13.5>, q8, #31

00001974 <_ZN5YAPFS8readDataEPVci>:
_ZN5YAPFS8readDataEPVci():
    1974:	b570      	push	{r4, r5, r6, lr}
    1976:	0004      	movs	r4, r0
    1978:	000d      	movs	r5, r1
    197a:	20ff      	movs	r0, #255	; 0xff
    197c:	f7ff ff04 	bl	1788 <_ZN5YAPFSL10m_SpiwriteEi>
    1980:	b2c3      	uxtb	r3, r0
    1982:	2bff      	cmp	r3, #255	; 0xff
    1984:	d0f9      	beq.n	197a <_ZN5YAPFS8readDataEPVci+0x6>
    1986:	2000      	movs	r0, #0
    1988:	2bfe      	cmp	r3, #254	; 0xfe
    198a:	d121      	bne.n	19d0 <next419+0x26>
    198c:	3010      	adds	r0, #16
    198e:	f7ff ff1b 	bl	17c8 <_ZN5YAPFSL12m_SpiSetBitsEi>
    1992:	2302      	movs	r3, #2
    1994:	4917      	ldr	r1, [pc, #92]	; (19f4 <next436+0x1c>)
    1996:	780a      	ldrb	r2, [r1, #0]
    1998:	421a      	tst	r2, r3
    199a:	d0fc      	beq.n	1996 <_ZN5YAPFS8readDataEPVci+0x22>
    199c:	2301      	movs	r3, #1
    199e:	4a16      	ldr	r2, [pc, #88]	; (19f8 <next436+0x20>)
    19a0:	4023      	ands	r3, r4
    19a2:	4916      	ldr	r1, [pc, #88]	; (19fc <next436+0x24>)
    19a4:	d015      	beq.n	19d2 <next419+0x28>
    19a6:	2300      	movs	r3, #0
    19a8:	8111      	strh	r1, [r2, #8]

000019aa <next419>:
next419():
    19aa:	8993      	ldrh	r3, [r2, #12]
    19ac:	075b      	lsls	r3, r3, #29
    19ae:	d5fc      	bpl.n	19aa <next419>
    19b0:	8913      	ldrh	r3, [r2, #8]
    19b2:	8111      	strh	r1, [r2, #8]
    19b4:	7063      	strb	r3, [r4, #1]
    19b6:	0a1b      	lsrs	r3, r3, #8
    19b8:	7023      	strb	r3, [r4, #0]
    19ba:	3402      	adds	r4, #2
    19bc:	3d02      	subs	r5, #2
    19be:	d1f4      	bne.n	19aa <next419>
    19c0:	8993      	ldrh	r3, [r2, #12]
    19c2:	075b      	lsls	r3, r3, #29
    19c4:	d5fc      	bpl.n	19c0 <next419+0x16>
    19c6:	8913      	ldrh	r3, [r2, #8]
    19c8:	2008      	movs	r0, #8
    19ca:	f7ff fefd 	bl	17c8 <_ZN5YAPFSL12m_SpiSetBitsEi>
    19ce:	2001      	movs	r0, #1
    19d0:	bd70      	pop	{r4, r5, r6, pc}
    19d2:	1964      	adds	r4, r4, r5
    19d4:	426d      	negs	r5, r5
    19d6:	8111      	strh	r1, [r2, #8]

000019d8 <next436>:
next436():
    19d8:	8993      	ldrh	r3, [r2, #12]
    19da:	075b      	lsls	r3, r3, #29
    19dc:	d5fc      	bpl.n	19d8 <next436>
    19de:	8913      	ldrh	r3, [r2, #8]
    19e0:	8111      	strh	r1, [r2, #8]
    19e2:	ba5b      	rev16	r3, r3
    19e4:	5363      	strh	r3, [r4, r5]
    19e6:	3502      	adds	r5, #2
    19e8:	d1f6      	bne.n	19d8 <next436>
    19ea:	8993      	ldrh	r3, [r2, #12]
    19ec:	075b      	lsls	r3, r3, #29
    19ee:	d5fc      	bpl.n	19ea <next436+0x12>
    19f0:	8913      	ldrh	r3, [r2, #8]
    19f2:	e7e9      	b.n	19c8 <next419+0x1e>
    19f4:	000c      	movs	r4, r1
    19f6:	4004      	ands	r4, r0
    19f8:	0000      	movs	r0, r0
    19fa:	4004      	ands	r4, r0
    19fc:	ffff 0000 	vaddl.u<illegal width 64>	q8, d15, d0

00001a00 <_ZN5YAPFS9writeDataEPKcc>:
_ZN5YAPFS9writeDataEPKcc():
    1a00:	b570      	push	{r4, r5, r6, lr}
    1a02:	0004      	movs	r4, r0
    1a04:	000d      	movs	r5, r1
    1a06:	f7ff fed5 	bl	17b4 <_ZN5YAPFS9waitReadyEi.isra.0>
    1a0a:	0003      	movs	r3, r0
    1a0c:	2000      	movs	r0, #0
    1a0e:	4283      	cmp	r3, r0
    1a10:	d016      	beq.n	1a40 <_ZN5YAPFS9writeDataEPKcc+0x40>
    1a12:	0028      	movs	r0, r5
    1a14:	f7ff feb8 	bl	1788 <_ZN5YAPFSL10m_SpiwriteEi>
    1a18:	2380      	movs	r3, #128	; 0x80
    1a1a:	009b      	lsls	r3, r3, #2
    1a1c:	18e5      	adds	r5, r4, r3
    1a1e:	7820      	ldrb	r0, [r4, #0]
    1a20:	3401      	adds	r4, #1
    1a22:	f7ff feb1 	bl	1788 <_ZN5YAPFSL10m_SpiwriteEi>
    1a26:	42ac      	cmp	r4, r5
    1a28:	d1f9      	bne.n	1a1e <_ZN5YAPFS9writeDataEPKcc+0x1e>
    1a2a:	20ff      	movs	r0, #255	; 0xff
    1a2c:	f7ff feac 	bl	1788 <_ZN5YAPFSL10m_SpiwriteEi>
    1a30:	4804      	ldr	r0, [pc, #16]	; (1a44 <_ZN5YAPFS9writeDataEPKcc+0x44>)
    1a32:	f7ff fea9 	bl	1788 <_ZN5YAPFSL10m_SpiwriteEi>
    1a36:	20ff      	movs	r0, #255	; 0xff
    1a38:	f7ff fea6 	bl	1788 <_ZN5YAPFSL10m_SpiwriteEi>
    1a3c:	231f      	movs	r3, #31
    1a3e:	4018      	ands	r0, r3
    1a40:	bd70      	pop	{r4, r5, r6, pc}
    1a42:	46c0      	nop			; (mov r8, r8)
    1a44:	ffff 0000 	vaddl.u<illegal width 64>	q8, d15, d0

00001a48 <_ZN5YAPFS10readBlocksEPcjj>:
_ZN5YAPFS10readBlocksEPcjj():
    1a48:	b5f7      	push	{r0, r1, r2, r4, r5, r6, r7, lr}
    1a4a:	000e      	movs	r6, r1
    1a4c:	0014      	movs	r4, r2
    1a4e:	2500      	movs	r5, #0
    1a50:	9001      	str	r0, [sp, #4]
    1a52:	f7ff fedc 	bl	180e <_ZN5YAPFS6selectEv>
    1a56:	1e07      	subs	r7, r0, #0
    1a58:	d022      	beq.n	1aa0 <_ZN5YAPFS10readBlocksEPcjj+0x58>
    1a5a:	4b1a      	ldr	r3, [pc, #104]	; (1ac4 <_ZN5YAPFS10readBlocksEPcjj+0x7c>)
    1a5c:	0031      	movs	r1, r6
    1a5e:	781b      	ldrb	r3, [r3, #0]
    1a60:	2b03      	cmp	r3, #3
    1a62:	d000      	beq.n	1a66 <_ZN5YAPFS10readBlocksEPcjj+0x1e>
    1a64:	0271      	lsls	r1, r6, #9
    1a66:	2200      	movs	r2, #0
    1a68:	2052      	movs	r0, #82	; 0x52
    1a6a:	f7ff fee2 	bl	1832 <_ZN5YAPFS12writeCommandEcjPj>
    1a6e:	2800      	cmp	r0, #0
    1a70:	d116      	bne.n	1aa0 <_ZN5YAPFS10readBlocksEPcjj+0x58>
    1a72:	2180      	movs	r1, #128	; 0x80
    1a74:	9801      	ldr	r0, [sp, #4]
    1a76:	0089      	lsls	r1, r1, #2
    1a78:	f7ff ff7c 	bl	1974 <_ZN5YAPFS8readDataEPVci>
    1a7c:	2800      	cmp	r0, #0
    1a7e:	d113      	bne.n	1aa8 <_ZN5YAPFS10readBlocksEPcjj+0x60>
    1a80:	3501      	adds	r5, #1
    1a82:	2200      	movs	r2, #0
    1a84:	204c      	movs	r0, #76	; 0x4c
    1a86:	0011      	movs	r1, r2
    1a88:	f7ff fed3 	bl	1832 <_ZN5YAPFS12writeCommandEcjPj>
    1a8c:	2800      	cmp	r0, #0
    1a8e:	d107      	bne.n	1aa0 <_ZN5YAPFS10readBlocksEPcjj+0x58>
    1a90:	f7ff feb2 	bl	17f8 <_ZN5YAPFS8deselectEv>
    1a94:	2c00      	cmp	r4, #0
    1a96:	d101      	bne.n	1a9c <_ZN5YAPFS10readBlocksEPcjj+0x54>
    1a98:	0038      	movs	r0, r7
    1a9a:	bdfe      	pop	{r1, r2, r3, r4, r5, r6, r7, pc}
    1a9c:	2d03      	cmp	r5, #3
    1a9e:	d1d8      	bne.n	1a52 <_ZN5YAPFS10readBlocksEPcjj+0xa>
    1aa0:	f7ff feaa 	bl	17f8 <_ZN5YAPFS8deselectEv>
    1aa4:	2700      	movs	r7, #0
    1aa6:	e7f7      	b.n	1a98 <_ZN5YAPFS10readBlocksEPcjj+0x50>
    1aa8:	2280      	movs	r2, #128	; 0x80
    1aaa:	0092      	lsls	r2, r2, #2
    1aac:	4694      	mov	ip, r2
    1aae:	2500      	movs	r5, #0
    1ab0:	9b01      	ldr	r3, [sp, #4]
    1ab2:	3c01      	subs	r4, #1
    1ab4:	4463      	add	r3, ip
    1ab6:	3601      	adds	r6, #1
    1ab8:	9301      	str	r3, [sp, #4]
    1aba:	42ac      	cmp	r4, r5
    1abc:	d1d9      	bne.n	1a72 <_ZN5YAPFS10readBlocksEPcjj+0x2a>
    1abe:	0025      	movs	r5, r4
    1ac0:	e7df      	b.n	1a82 <_ZN5YAPFS10readBlocksEPcjj+0x3a>
    1ac2:	46c0      	nop			; (mov r8, r8)
    1ac4:	0264      	lsls	r4, r4, #9
    1ac6:	1000      	asrs	r0, r0, #32

00001ac8 <_ZN5YAPFS11writeBlocksEPKcjj>:
_ZN5YAPFS11writeBlocksEPKcjj():
    1ac8:	b5f0      	push	{r4, r5, r6, r7, lr}
    1aca:	0014      	movs	r4, r2
    1acc:	000f      	movs	r7, r1
    1ace:	0005      	movs	r5, r0
    1ad0:	2600      	movs	r6, #0
    1ad2:	b087      	sub	sp, #28
    1ad4:	9001      	str	r0, [sp, #4]
    1ad6:	9102      	str	r1, [sp, #8]
    1ad8:	9203      	str	r2, [sp, #12]
    1ada:	4b37      	ldr	r3, [pc, #220]	; (1bb8 <_ZN5YAPFS11writeBlocksEPKcjj+0xf0>)
    1adc:	781b      	ldrb	r3, [r3, #0]
    1ade:	2b01      	cmp	r3, #1
    1ae0:	d107      	bne.n	1af2 <_ZN5YAPFS11writeBlocksEPKcjj+0x2a>
    1ae2:	f7ff fe94 	bl	180e <_ZN5YAPFS6selectEv>
    1ae6:	2800      	cmp	r0, #0
    1ae8:	d10b      	bne.n	1b02 <_ZN5YAPFS11writeBlocksEPKcjj+0x3a>
    1aea:	f7ff fe85 	bl	17f8 <_ZN5YAPFS8deselectEv>
    1aee:	2500      	movs	r5, #0
    1af0:	e026      	b.n	1b40 <_ZN5YAPFS11writeBlocksEPKcjj+0x78>
    1af2:	2200      	movs	r2, #0
    1af4:	0021      	movs	r1, r4
    1af6:	2057      	movs	r0, #87	; 0x57
    1af8:	f7ff ff28 	bl	194c <_ZN5YAPFS18commandTransactionEcjPj>
    1afc:	2800      	cmp	r0, #0
    1afe:	d0f0      	beq.n	1ae2 <_ZN5YAPFS11writeBlocksEPKcjj+0x1a>
    1b00:	e7f3      	b.n	1aea <_ZN5YAPFS11writeBlocksEPKcjj+0x22>
    1b02:	4b2d      	ldr	r3, [pc, #180]	; (1bb8 <_ZN5YAPFS11writeBlocksEPKcjj+0xf0>)
    1b04:	781b      	ldrb	r3, [r3, #0]
    1b06:	2b03      	cmp	r3, #3
    1b08:	d000      	beq.n	1b0c <_ZN5YAPFS11writeBlocksEPKcjj+0x44>
    1b0a:	027f      	lsls	r7, r7, #9
    1b0c:	2200      	movs	r2, #0
    1b0e:	0039      	movs	r1, r7
    1b10:	2059      	movs	r0, #89	; 0x59
    1b12:	f7ff fe8e 	bl	1832 <_ZN5YAPFS12writeCommandEcjPj>
    1b16:	2800      	cmp	r0, #0
    1b18:	d1e7      	bne.n	1aea <_ZN5YAPFS11writeBlocksEPKcjj+0x22>
    1b1a:	21fc      	movs	r1, #252	; 0xfc
    1b1c:	0028      	movs	r0, r5
    1b1e:	f7ff ff6f 	bl	1a00 <_ZN5YAPFS9writeDataEPKcc>
    1b22:	0007      	movs	r7, r0
    1b24:	2805      	cmp	r0, #5
    1b26:	d00e      	beq.n	1b46 <_ZN5YAPFS11writeBlocksEPKcjj+0x7e>
    1b28:	3601      	adds	r6, #1
    1b2a:	f7ff fe43 	bl	17b4 <_ZN5YAPFS9waitReadyEi.isra.0>
    1b2e:	1e05      	subs	r5, r0, #0
    1b30:	d0db      	beq.n	1aea <_ZN5YAPFS11writeBlocksEPKcjj+0x22>
    1b32:	2c00      	cmp	r4, #0
    1b34:	d110      	bne.n	1b58 <_ZN5YAPFS11writeBlocksEPKcjj+0x90>
    1b36:	20fd      	movs	r0, #253	; 0xfd
    1b38:	f7ff fe26 	bl	1788 <_ZN5YAPFSL10m_SpiwriteEi>
    1b3c:	f7ff fe5c 	bl	17f8 <_ZN5YAPFS8deselectEv>
    1b40:	0028      	movs	r0, r5
    1b42:	b007      	add	sp, #28
    1b44:	bdf0      	pop	{r4, r5, r6, r7, pc}
    1b46:	2380      	movs	r3, #128	; 0x80
    1b48:	2600      	movs	r6, #0
    1b4a:	009b      	lsls	r3, r3, #2
    1b4c:	3c01      	subs	r4, #1
    1b4e:	18ed      	adds	r5, r5, r3
    1b50:	42b4      	cmp	r4, r6
    1b52:	d1e2      	bne.n	1b1a <_ZN5YAPFS11writeBlocksEPKcjj+0x52>
    1b54:	0026      	movs	r6, r4
    1b56:	e7e8      	b.n	1b2a <_ZN5YAPFS11writeBlocksEPKcjj+0x62>
    1b58:	2200      	movs	r2, #0
    1b5a:	204c      	movs	r0, #76	; 0x4c
    1b5c:	0011      	movs	r1, r2
    1b5e:	f7ff fe68 	bl	1832 <_ZN5YAPFS12writeCommandEcjPj>
    1b62:	1e04      	subs	r4, r0, #0
    1b64:	d1c1      	bne.n	1aea <_ZN5YAPFS11writeBlocksEPKcjj+0x22>
    1b66:	f7ff fe47 	bl	17f8 <_ZN5YAPFS8deselectEv>
    1b6a:	2f0a      	cmp	r7, #10
    1b6c:	d1bd      	bne.n	1aea <_ZN5YAPFS11writeBlocksEPKcjj+0x22>
    1b6e:	4b12      	ldr	r3, [pc, #72]	; (1bb8 <_ZN5YAPFS11writeBlocksEPKcjj+0xf0>)
    1b70:	781b      	ldrb	r3, [r3, #0]
    1b72:	2b01      	cmp	r3, #1
    1b74:	d10a      	bne.n	1b8c <_ZN5YAPFS11writeBlocksEPKcjj+0xc4>
    1b76:	2400      	movs	r4, #0
    1b78:	9b01      	ldr	r3, [sp, #4]
    1b7a:	0265      	lsls	r5, r4, #9
    1b7c:	195d      	adds	r5, r3, r5
    1b7e:	9b02      	ldr	r3, [sp, #8]
    1b80:	18e7      	adds	r7, r4, r3
    1b82:	9b03      	ldr	r3, [sp, #12]
    1b84:	1b1c      	subs	r4, r3, r4
    1b86:	2e03      	cmp	r6, #3
    1b88:	d1a7      	bne.n	1ada <_ZN5YAPFS11writeBlocksEPKcjj+0x12>
    1b8a:	e7ae      	b.n	1aea <_ZN5YAPFS11writeBlocksEPKcjj+0x22>
    1b8c:	f7ff fe3f 	bl	180e <_ZN5YAPFS6selectEv>
    1b90:	2800      	cmp	r0, #0
    1b92:	d0f0      	beq.n	1b76 <_ZN5YAPFS11writeBlocksEPKcjj+0xae>
    1b94:	0022      	movs	r2, r4
    1b96:	0021      	movs	r1, r4
    1b98:	2056      	movs	r0, #86	; 0x56
    1b9a:	f7ff fe4a 	bl	1832 <_ZN5YAPFS12writeCommandEcjPj>
    1b9e:	2800      	cmp	r0, #0
    1ba0:	d107      	bne.n	1bb2 <_ZN5YAPFS11writeBlocksEPKcjj+0xea>
    1ba2:	2104      	movs	r1, #4
    1ba4:	a805      	add	r0, sp, #20
    1ba6:	f7ff fee5 	bl	1974 <_ZN5YAPFS8readDataEPVci>
    1baa:	2800      	cmp	r0, #0
    1bac:	d001      	beq.n	1bb2 <_ZN5YAPFS11writeBlocksEPKcjj+0xea>
    1bae:	9b05      	ldr	r3, [sp, #20]
    1bb0:	ba1c      	rev	r4, r3
    1bb2:	f7ff fe21 	bl	17f8 <_ZN5YAPFS8deselectEv>
    1bb6:	e7df      	b.n	1b78 <_ZN5YAPFS11writeBlocksEPKcjj+0xb0>
    1bb8:	0264      	lsls	r4, r4, #9
    1bba:	1000      	asrs	r0, r0, #32

00001bbc <_ZN5YAPFS15disk_initializeEh>:
_ZN5YAPFS15disk_initializeEh():
    1bbc:	b5f7      	push	{r0, r1, r2, r4, r5, r6, r7, lr}
    1bbe:	4e55      	ldr	r6, [pc, #340]	; (1d14 <_ZN5YAPFS15disk_initializeEh+0x158>)
    1bc0:	2202      	movs	r2, #2
    1bc2:	6833      	ldr	r3, [r6, #0]
    1bc4:	001c      	movs	r4, r3
    1bc6:	4394      	bics	r4, r2
    1bc8:	6034      	str	r4, [r6, #0]
    1bca:	07db      	lsls	r3, r3, #31
    1bcc:	d401      	bmi.n	1bd2 <_ZN5YAPFS15disk_initializeEh+0x16>
    1bce:	b2e0      	uxtb	r0, r4
    1bd0:	bdfe      	pop	{r1, r2, r3, r4, r5, r6, r7, pc}
    1bd2:	22a0      	movs	r2, #160	; 0xa0
    1bd4:	2388      	movs	r3, #136	; 0x88
    1bd6:	2180      	movs	r1, #128	; 0x80
    1bd8:	250a      	movs	r5, #10
    1bda:	0612      	lsls	r2, r2, #24
    1bdc:	019b      	lsls	r3, r3, #6
    1bde:	50d1      	str	r1, [r2, r3]
    1be0:	20ff      	movs	r0, #255	; 0xff
    1be2:	3d01      	subs	r5, #1
    1be4:	f7ff fdd0 	bl	1788 <_ZN5YAPFSL10m_SpiwriteEi>
    1be8:	2d00      	cmp	r5, #0
    1bea:	d1f9      	bne.n	1be0 <_ZN5YAPFS15disk_initializeEh+0x24>
    1bec:	002a      	movs	r2, r5
    1bee:	0029      	movs	r1, r5
    1bf0:	2040      	movs	r0, #64	; 0x40
    1bf2:	f7ff feab 	bl	194c <_ZN5YAPFS18commandTransactionEcjPj>
    1bf6:	2801      	cmp	r0, #1
    1bf8:	d003      	beq.n	1c02 <_ZN5YAPFS15disk_initializeEh+0x46>
    1bfa:	4b47      	ldr	r3, [pc, #284]	; (1d18 <_ZN5YAPFS15disk_initializeEh+0x15c>)
    1bfc:	2204      	movs	r2, #4
    1bfe:	701a      	strb	r2, [r3, #0]
    1c00:	e7e5      	b.n	1bce <_ZN5YAPFS15disk_initializeEh+0x12>
    1c02:	27d5      	movs	r7, #213	; 0xd5
    1c04:	007f      	lsls	r7, r7, #1
    1c06:	aa01      	add	r2, sp, #4
    1c08:	0039      	movs	r1, r7
    1c0a:	2048      	movs	r0, #72	; 0x48
    1c0c:	f7ff fe9e 	bl	194c <_ZN5YAPFS18commandTransactionEcjPj>
    1c10:	2801      	cmp	r0, #1
    1c12:	d14d      	bne.n	1cb0 <_ZN5YAPFS15disk_initializeEh+0xf4>
    1c14:	9b01      	ldr	r3, [sp, #4]
    1c16:	051b      	lsls	r3, r3, #20
    1c18:	0d1b      	lsrs	r3, r3, #20
    1c1a:	42bb      	cmp	r3, r7
    1c1c:	d1ed      	bne.n	1bfa <_ZN5YAPFS15disk_initializeEh+0x3e>
    1c1e:	aa01      	add	r2, sp, #4
    1c20:	0029      	movs	r1, r5
    1c22:	207a      	movs	r0, #122	; 0x7a
    1c24:	f7ff fe92 	bl	194c <_ZN5YAPFS18commandTransactionEcjPj>
    1c28:	2801      	cmp	r0, #1
    1c2a:	d1e6      	bne.n	1bfa <_ZN5YAPFS15disk_initializeEh+0x3e>
    1c2c:	9b01      	ldr	r3, [sp, #4]
    1c2e:	02db      	lsls	r3, r3, #11
    1c30:	d5e3      	bpl.n	1bfa <_ZN5YAPFS15disk_initializeEh+0x3e>
    1c32:	493a      	ldr	r1, [pc, #232]	; (1d1c <_ZN5YAPFS15disk_initializeEh+0x160>)
    1c34:	2200      	movs	r2, #0
    1c36:	2069      	movs	r0, #105	; 0x69
    1c38:	f7ff fe88 	bl	194c <_ZN5YAPFS18commandTransactionEcjPj>
    1c3c:	0001      	movs	r1, r0
    1c3e:	2801      	cmp	r0, #1
    1c40:	d0f7      	beq.n	1c32 <_ZN5YAPFS15disk_initializeEh+0x76>
    1c42:	4d35      	ldr	r5, [pc, #212]	; (1d18 <_ZN5YAPFS15disk_initializeEh+0x15c>)
    1c44:	2800      	cmp	r0, #0
    1c46:	d002      	beq.n	1c4e <_ZN5YAPFS15disk_initializeEh+0x92>
    1c48:	2304      	movs	r3, #4
    1c4a:	702b      	strb	r3, [r5, #0]
    1c4c:	e7bf      	b.n	1bce <_ZN5YAPFS15disk_initializeEh+0x12>
    1c4e:	aa01      	add	r2, sp, #4
    1c50:	207a      	movs	r0, #122	; 0x7a
    1c52:	f7ff fe7b 	bl	194c <_ZN5YAPFS18commandTransactionEcjPj>
    1c56:	2800      	cmp	r0, #0
    1c58:	d1f6      	bne.n	1c48 <_ZN5YAPFS15disk_initializeEh+0x8c>
    1c5a:	9b01      	ldr	r3, [sp, #4]
    1c5c:	005b      	lsls	r3, r3, #1
    1c5e:	d523      	bpl.n	1ca8 <_ZN5YAPFS15disk_initializeEh+0xec>
    1c60:	2303      	movs	r3, #3
    1c62:	702b      	strb	r3, [r5, #0]
    1c64:	2200      	movs	r2, #0
    1c66:	206a      	movs	r0, #106	; 0x6a
    1c68:	0011      	movs	r1, r2
    1c6a:	f7ff fe6f 	bl	194c <_ZN5YAPFS18commandTransactionEcjPj>
    1c6e:	4b2a      	ldr	r3, [pc, #168]	; (1d18 <_ZN5YAPFS15disk_initializeEh+0x15c>)
    1c70:	2800      	cmp	r0, #0
    1c72:	d1c3      	bne.n	1bfc <_ZN5YAPFS15disk_initializeEh+0x40>
    1c74:	781b      	ldrb	r3, [r3, #0]
    1c76:	2b03      	cmp	r3, #3
    1c78:	d13e      	bne.n	1cf8 <_ZN5YAPFS15disk_initializeEh+0x13c>
    1c7a:	2301      	movs	r3, #1
    1c7c:	2202      	movs	r2, #2
    1c7e:	6830      	ldr	r0, [r6, #0]
    1c80:	4c27      	ldr	r4, [pc, #156]	; (1d20 <_ZN5YAPFS15disk_initializeEh+0x164>)
    1c82:	4398      	bics	r0, r3
    1c84:	4b27      	ldr	r3, [pc, #156]	; (1d24 <_ZN5YAPFS15disk_initializeEh+0x168>)
    1c86:	6030      	str	r0, [r6, #0]
    1c88:	6859      	ldr	r1, [r3, #4]
    1c8a:	4391      	bics	r1, r2
    1c8c:	6059      	str	r1, [r3, #4]
    1c8e:	6819      	ldr	r1, [r3, #0]
    1c90:	4021      	ands	r1, r4
    1c92:	6019      	str	r1, [r3, #0]
    1c94:	2180      	movs	r1, #128	; 0x80
    1c96:	681c      	ldr	r4, [r3, #0]
    1c98:	0049      	lsls	r1, r1, #1
    1c9a:	4321      	orrs	r1, r4
    1c9c:	6019      	str	r1, [r3, #0]
    1c9e:	611a      	str	r2, [r3, #16]
    1ca0:	6859      	ldr	r1, [r3, #4]
    1ca2:	430a      	orrs	r2, r1
    1ca4:	605a      	str	r2, [r3, #4]
    1ca6:	e033      	b.n	1d10 <_ZN5YAPFS15disk_initializeEh+0x154>
    1ca8:	2202      	movs	r2, #2
    1caa:	4b1b      	ldr	r3, [pc, #108]	; (1d18 <_ZN5YAPFS15disk_initializeEh+0x15c>)
    1cac:	701a      	strb	r2, [r3, #0]
    1cae:	e7d9      	b.n	1c64 <_ZN5YAPFS15disk_initializeEh+0xa8>
    1cb0:	aa01      	add	r2, sp, #4
    1cb2:	0029      	movs	r1, r5
    1cb4:	207a      	movs	r0, #122	; 0x7a
    1cb6:	f7ff fe49 	bl	194c <_ZN5YAPFS18commandTransactionEcjPj>
    1cba:	2801      	cmp	r0, #1
    1cbc:	d19d      	bne.n	1bfa <_ZN5YAPFS15disk_initializeEh+0x3e>
    1cbe:	2380      	movs	r3, #128	; 0x80
    1cc0:	9a01      	ldr	r2, [sp, #4]
    1cc2:	035b      	lsls	r3, r3, #13
    1cc4:	001d      	movs	r5, r3
    1cc6:	421a      	tst	r2, r3
    1cc8:	d097      	beq.n	1bfa <_ZN5YAPFS15disk_initializeEh+0x3e>
    1cca:	2200      	movs	r2, #0
    1ccc:	0029      	movs	r1, r5
    1cce:	2069      	movs	r0, #105	; 0x69
    1cd0:	f7ff fe3c 	bl	194c <_ZN5YAPFS18commandTransactionEcjPj>
    1cd4:	2801      	cmp	r0, #1
    1cd6:	d0f8      	beq.n	1cca <_ZN5YAPFS15disk_initializeEh+0x10e>
    1cd8:	2800      	cmp	r0, #0
    1cda:	d0e5      	beq.n	1ca8 <_ZN5YAPFS15disk_initializeEh+0xec>
    1cdc:	2580      	movs	r5, #128	; 0x80
    1cde:	036d      	lsls	r5, r5, #13
    1ce0:	2200      	movs	r2, #0
    1ce2:	0029      	movs	r1, r5
    1ce4:	2041      	movs	r0, #65	; 0x41
    1ce6:	f7ff fe31 	bl	194c <_ZN5YAPFS18commandTransactionEcjPj>
    1cea:	2801      	cmp	r0, #1
    1cec:	d0f8      	beq.n	1ce0 <_ZN5YAPFS15disk_initializeEh+0x124>
    1cee:	4b0a      	ldr	r3, [pc, #40]	; (1d18 <_ZN5YAPFS15disk_initializeEh+0x15c>)
    1cf0:	2800      	cmp	r0, #0
    1cf2:	d183      	bne.n	1bfc <_ZN5YAPFS15disk_initializeEh+0x40>
    1cf4:	2201      	movs	r2, #1
    1cf6:	701a      	strb	r2, [r3, #0]
    1cf8:	2180      	movs	r1, #128	; 0x80
    1cfa:	2200      	movs	r2, #0
    1cfc:	0089      	lsls	r1, r1, #2
    1cfe:	2050      	movs	r0, #80	; 0x50
    1d00:	f7ff fe24 	bl	194c <_ZN5YAPFS18commandTransactionEcjPj>
    1d04:	2800      	cmp	r0, #0
    1d06:	d0b8      	beq.n	1c7a <_ZN5YAPFS15disk_initializeEh+0xbe>
    1d08:	2204      	movs	r2, #4
    1d0a:	4b03      	ldr	r3, [pc, #12]	; (1d18 <_ZN5YAPFS15disk_initializeEh+0x15c>)
    1d0c:	6830      	ldr	r0, [r6, #0]
    1d0e:	701a      	strb	r2, [r3, #0]
    1d10:	b2c0      	uxtb	r0, r0
    1d12:	e75d      	b.n	1bd0 <_ZN5YAPFS15disk_initializeEh+0x14>
    1d14:	0108      	lsls	r0, r1, #4
    1d16:	1000      	asrs	r0, r0, #32
    1d18:	0264      	lsls	r4, r4, #9
    1d1a:	1000      	asrs	r0, r0, #32
    1d1c:	0000      	movs	r0, r0
    1d1e:	4010      	ands	r0, r2
    1d20:	00ff      	lsls	r7, r7, #3
    1d22:	ff00 0000 	vhadd.u8	d0, d0, d0
    1d26:	4004      	ands	r4, r0

00001d28 <_ZN5YAPFS11disk_statusEh>:
_ZN5YAPFS11disk_statusEh():
    1d28:	2202      	movs	r2, #2
    1d2a:	4b03      	ldr	r3, [pc, #12]	; (1d38 <_ZN5YAPFS11disk_statusEh+0x10>)
    1d2c:	6818      	ldr	r0, [r3, #0]
    1d2e:	4390      	bics	r0, r2
    1d30:	6018      	str	r0, [r3, #0]
    1d32:	b2c0      	uxtb	r0, r0
    1d34:	4770      	bx	lr
    1d36:	46c0      	nop			; (mov r8, r8)
    1d38:	0108      	lsls	r0, r1, #4
    1d3a:	1000      	asrs	r0, r0, #32

00001d3c <_ZN5YAPFS9disk_readEhPhmh>:
_ZN5YAPFS9disk_readEhPhmh():
    1d3c:	b5f7      	push	{r0, r1, r2, r4, r5, r6, r7, lr}
    1d3e:	0015      	movs	r5, r2
    1d40:	4a19      	ldr	r2, [pc, #100]	; (1da8 <_ZN5YAPFS9disk_readEhPhmh+0x6c>)
    1d42:	000e      	movs	r6, r1
    1d44:	6812      	ldr	r2, [r2, #0]
    1d46:	07d2      	lsls	r2, r2, #31
    1d48:	d42c      	bmi.n	1da4 <_ZN5YAPFS9disk_readEhPhmh+0x68>
    1d4a:	2b01      	cmp	r3, #1
    1d4c:	d908      	bls.n	1d60 <_ZN5YAPFS9disk_readEhPhmh+0x24>
    1d4e:	001a      	movs	r2, r3
    1d50:	0029      	movs	r1, r5
    1d52:	0030      	movs	r0, r6
    1d54:	f7ff fe78 	bl	1a48 <_ZN5YAPFS10readBlocksEPcjj>
    1d58:	2800      	cmp	r0, #0
    1d5a:	d023      	beq.n	1da4 <_ZN5YAPFS9disk_readEhPhmh+0x68>
    1d5c:	2000      	movs	r0, #0
    1d5e:	bdfe      	pop	{r1, r2, r3, r4, r5, r6, r7, pc}
    1d60:	2403      	movs	r4, #3
    1d62:	026b      	lsls	r3, r5, #9
    1d64:	9301      	str	r3, [sp, #4]
    1d66:	f7ff fd52 	bl	180e <_ZN5YAPFS6selectEv>
    1d6a:	2800      	cmp	r0, #0
    1d6c:	d018      	beq.n	1da0 <_ZN5YAPFS9disk_readEhPhmh+0x64>
    1d6e:	4b0f      	ldr	r3, [pc, #60]	; (1dac <_ZN5YAPFS9disk_readEhPhmh+0x70>)
    1d70:	0029      	movs	r1, r5
    1d72:	781b      	ldrb	r3, [r3, #0]
    1d74:	2b03      	cmp	r3, #3
    1d76:	d000      	beq.n	1d7a <_ZN5YAPFS9disk_readEhPhmh+0x3e>
    1d78:	9901      	ldr	r1, [sp, #4]
    1d7a:	2200      	movs	r2, #0
    1d7c:	2051      	movs	r0, #81	; 0x51
    1d7e:	f7ff fd58 	bl	1832 <_ZN5YAPFS12writeCommandEcjPj>
    1d82:	2800      	cmp	r0, #0
    1d84:	d10c      	bne.n	1da0 <_ZN5YAPFS9disk_readEhPhmh+0x64>
    1d86:	2180      	movs	r1, #128	; 0x80
    1d88:	0030      	movs	r0, r6
    1d8a:	0089      	lsls	r1, r1, #2
    1d8c:	f7ff fdf2 	bl	1974 <_ZN5YAPFS8readDataEPVci>
    1d90:	0007      	movs	r7, r0
    1d92:	f7ff fd31 	bl	17f8 <_ZN5YAPFS8deselectEv>
    1d96:	2f00      	cmp	r7, #0
    1d98:	d1e0      	bne.n	1d5c <_ZN5YAPFS9disk_readEhPhmh+0x20>
    1d9a:	3c01      	subs	r4, #1
    1d9c:	2c00      	cmp	r4, #0
    1d9e:	d1e2      	bne.n	1d66 <_ZN5YAPFS9disk_readEhPhmh+0x2a>
    1da0:	f7ff fd2a 	bl	17f8 <_ZN5YAPFS8deselectEv>
    1da4:	2004      	movs	r0, #4
    1da6:	e7da      	b.n	1d5e <_ZN5YAPFS9disk_readEhPhmh+0x22>
    1da8:	0108      	lsls	r0, r1, #4
    1daa:	1000      	asrs	r0, r0, #32
    1dac:	0264      	lsls	r4, r4, #9
    1dae:	1000      	asrs	r0, r0, #32

00001db0 <_ZN5YAPFS10disk_writeEhPKhmh>:
_ZN5YAPFS10disk_writeEhPKhmh():
    1db0:	b5f7      	push	{r0, r1, r2, r4, r5, r6, r7, lr}
    1db2:	0015      	movs	r5, r2
    1db4:	4a1b      	ldr	r2, [pc, #108]	; (1e24 <_ZN5YAPFS10disk_writeEhPKhmh+0x74>)
    1db6:	000f      	movs	r7, r1
    1db8:	6811      	ldr	r1, [r2, #0]
    1dba:	2205      	movs	r2, #5
    1dbc:	4211      	tst	r1, r2
    1dbe:	d113      	bne.n	1de8 <_ZN5YAPFS10disk_writeEhPKhmh+0x38>
    1dc0:	2b01      	cmp	r3, #1
    1dc2:	d908      	bls.n	1dd6 <_ZN5YAPFS10disk_writeEhPKhmh+0x26>
    1dc4:	001a      	movs	r2, r3
    1dc6:	0029      	movs	r1, r5
    1dc8:	0038      	movs	r0, r7
    1dca:	f7ff fe7d 	bl	1ac8 <_ZN5YAPFS11writeBlocksEPKcjj>
    1dce:	2800      	cmp	r0, #0
    1dd0:	d00a      	beq.n	1de8 <_ZN5YAPFS10disk_writeEhPKhmh+0x38>
    1dd2:	2000      	movs	r0, #0
    1dd4:	bdfe      	pop	{r1, r2, r3, r4, r5, r6, r7, pc}
    1dd6:	2403      	movs	r4, #3
    1dd8:	026b      	lsls	r3, r5, #9
    1dda:	9301      	str	r3, [sp, #4]
    1ddc:	f7ff fd17 	bl	180e <_ZN5YAPFS6selectEv>
    1de0:	2800      	cmp	r0, #0
    1de2:	d103      	bne.n	1dec <_ZN5YAPFS10disk_writeEhPKhmh+0x3c>
    1de4:	f7ff fd08 	bl	17f8 <_ZN5YAPFS8deselectEv>
    1de8:	2004      	movs	r0, #4
    1dea:	e7f3      	b.n	1dd4 <_ZN5YAPFS10disk_writeEhPKhmh+0x24>
    1dec:	4b0e      	ldr	r3, [pc, #56]	; (1e28 <_ZN5YAPFS10disk_writeEhPKhmh+0x78>)
    1dee:	0029      	movs	r1, r5
    1df0:	781b      	ldrb	r3, [r3, #0]
    1df2:	2b03      	cmp	r3, #3
    1df4:	d000      	beq.n	1df8 <_ZN5YAPFS10disk_writeEhPKhmh+0x48>
    1df6:	9901      	ldr	r1, [sp, #4]
    1df8:	2200      	movs	r2, #0
    1dfa:	2058      	movs	r0, #88	; 0x58
    1dfc:	f7ff fd19 	bl	1832 <_ZN5YAPFS12writeCommandEcjPj>
    1e00:	2800      	cmp	r0, #0
    1e02:	d1ef      	bne.n	1de4 <_ZN5YAPFS10disk_writeEhPKhmh+0x34>
    1e04:	21fe      	movs	r1, #254	; 0xfe
    1e06:	0038      	movs	r0, r7
    1e08:	f7ff fdfa 	bl	1a00 <_ZN5YAPFS9writeDataEPKcc>
    1e0c:	0006      	movs	r6, r0
    1e0e:	f7ff fcf3 	bl	17f8 <_ZN5YAPFS8deselectEv>
    1e12:	2e0a      	cmp	r6, #10
    1e14:	d103      	bne.n	1e1e <_ZN5YAPFS10disk_writeEhPKhmh+0x6e>
    1e16:	3c01      	subs	r4, #1
    1e18:	2c00      	cmp	r4, #0
    1e1a:	d0e3      	beq.n	1de4 <_ZN5YAPFS10disk_writeEhPKhmh+0x34>
    1e1c:	e7de      	b.n	1ddc <_ZN5YAPFS10disk_writeEhPKhmh+0x2c>
    1e1e:	2e0c      	cmp	r6, #12
    1e20:	d0e0      	beq.n	1de4 <_ZN5YAPFS10disk_writeEhPKhmh+0x34>
    1e22:	e7d6      	b.n	1dd2 <_ZN5YAPFS10disk_writeEhPKhmh+0x22>
    1e24:	0108      	lsls	r0, r1, #4
    1e26:	1000      	asrs	r0, r0, #32
    1e28:	0264      	lsls	r4, r4, #9
    1e2a:	1000      	asrs	r0, r0, #32

00001e2c <_ZN5YAPFS10disk_ioctlEhhPv>:
_ZN5YAPFS10disk_ioctlEhhPv():
    1e2c:	b57f      	push	{r0, r1, r2, r3, r4, r5, r6, lr}
    1e2e:	0014      	movs	r4, r2
    1e30:	2901      	cmp	r1, #1
    1e32:	d012      	beq.n	1e5a <_ZN5YAPFS10disk_ioctlEhhPv+0x2e>
    1e34:	b24d      	sxtb	r5, r1
    1e36:	2d00      	cmp	r5, #0
    1e38:	d004      	beq.n	1e44 <_ZN5YAPFS10disk_ioctlEhhPv+0x18>
    1e3a:	2004      	movs	r0, #4
    1e3c:	2903      	cmp	r1, #3
    1e3e:	d106      	bne.n	1e4e <_ZN5YAPFS10disk_ioctlEhhPv+0x22>
    1e40:	2301      	movs	r3, #1
    1e42:	e037      	b.n	1eb4 <_ZN5YAPFS10disk_ioctlEhhPv+0x88>
    1e44:	f7ff fce3 	bl	180e <_ZN5YAPFS6selectEv>
    1e48:	2800      	cmp	r0, #0
    1e4a:	d102      	bne.n	1e52 <_ZN5YAPFS10disk_ioctlEhhPv+0x26>
    1e4c:	2001      	movs	r0, #1
    1e4e:	b004      	add	sp, #16
    1e50:	bd70      	pop	{r4, r5, r6, pc}
    1e52:	f7ff fcd1 	bl	17f8 <_ZN5YAPFS8deselectEv>
    1e56:	2000      	movs	r0, #0
    1e58:	e7f9      	b.n	1e4e <_ZN5YAPFS10disk_ioctlEhhPv+0x22>
    1e5a:	4b29      	ldr	r3, [pc, #164]	; (1f00 <_ZN5YAPFS10disk_ioctlEhhPv+0xd4>)
    1e5c:	681b      	ldr	r3, [r3, #0]
    1e5e:	420b      	tst	r3, r1
    1e60:	d1f4      	bne.n	1e4c <_ZN5YAPFS10disk_ioctlEhhPv+0x20>
    1e62:	2503      	movs	r5, #3
    1e64:	f7ff fcd3 	bl	180e <_ZN5YAPFS6selectEv>
    1e68:	2800      	cmp	r0, #0
    1e6a:	d045      	beq.n	1ef8 <_ZN5YAPFS10disk_ioctlEhhPv+0xcc>
    1e6c:	2200      	movs	r2, #0
    1e6e:	2049      	movs	r0, #73	; 0x49
    1e70:	0011      	movs	r1, r2
    1e72:	f7ff fcde 	bl	1832 <_ZN5YAPFS12writeCommandEcjPj>
    1e76:	2800      	cmp	r0, #0
    1e78:	d13e      	bne.n	1ef8 <_ZN5YAPFS10disk_ioctlEhhPv+0xcc>
    1e7a:	2110      	movs	r1, #16
    1e7c:	4668      	mov	r0, sp
    1e7e:	f7ff fd79 	bl	1974 <_ZN5YAPFS8readDataEPVci>
    1e82:	0006      	movs	r6, r0
    1e84:	f7ff fcb8 	bl	17f8 <_ZN5YAPFS8deselectEv>
    1e88:	2e00      	cmp	r6, #0
    1e8a:	d032      	beq.n	1ef2 <_ZN5YAPFS10disk_ioctlEhhPv+0xc6>
    1e8c:	466b      	mov	r3, sp
    1e8e:	79da      	ldrb	r2, [r3, #7]
    1e90:	7a19      	ldrb	r1, [r3, #8]
    1e92:	781b      	ldrb	r3, [r3, #0]
    1e94:	119b      	asrs	r3, r3, #6
    1e96:	2b01      	cmp	r3, #1
    1e98:	d10e      	bne.n	1eb8 <_ZN5YAPFS10disk_ioctlEhhPv+0x8c>
    1e9a:	466b      	mov	r3, sp
    1e9c:	21fc      	movs	r1, #252	; 0xfc
    1e9e:	891b      	ldrh	r3, [r3, #8]
    1ea0:	0412      	lsls	r2, r2, #16
    1ea2:	ba5b      	rev16	r3, r3
    1ea4:	0389      	lsls	r1, r1, #14
    1ea6:	b29b      	uxth	r3, r3
    1ea8:	400a      	ands	r2, r1
    1eaa:	4313      	orrs	r3, r2
    1eac:	3301      	adds	r3, #1
    1eae:	029b      	lsls	r3, r3, #10
    1eb0:	2b00      	cmp	r3, #0
    1eb2:	d0cb      	beq.n	1e4c <_ZN5YAPFS10disk_ioctlEhhPv+0x20>
    1eb4:	6023      	str	r3, [r4, #0]
    1eb6:	e7ce      	b.n	1e56 <_ZN5YAPFS10disk_ioctlEhhPv+0x2a>
    1eb8:	0093      	lsls	r3, r2, #2
    1eba:	466a      	mov	r2, sp
    1ebc:	0989      	lsrs	r1, r1, #6
    1ebe:	430b      	orrs	r3, r1
    1ec0:	21c0      	movs	r1, #192	; 0xc0
    1ec2:	7992      	ldrb	r2, [r2, #6]
    1ec4:	0109      	lsls	r1, r1, #4
    1ec6:	0292      	lsls	r2, r2, #10
    1ec8:	400a      	ands	r2, r1
    1eca:	4313      	orrs	r3, r2
    1ecc:	466a      	mov	r2, sp
    1ece:	2106      	movs	r1, #6
    1ed0:	7a52      	ldrb	r2, [r2, #9]
    1ed2:	3301      	adds	r3, #1
    1ed4:	0052      	lsls	r2, r2, #1
    1ed6:	400a      	ands	r2, r1
    1ed8:	4669      	mov	r1, sp
    1eda:	7a89      	ldrb	r1, [r1, #10]
    1edc:	09c9      	lsrs	r1, r1, #7
    1ede:	430a      	orrs	r2, r1
    1ee0:	3202      	adds	r2, #2
    1ee2:	4093      	lsls	r3, r2
    1ee4:	466a      	mov	r2, sp
    1ee6:	210f      	movs	r1, #15
    1ee8:	7952      	ldrb	r2, [r2, #5]
    1eea:	400a      	ands	r2, r1
    1eec:	4093      	lsls	r3, r2
    1eee:	0a5b      	lsrs	r3, r3, #9
    1ef0:	e7de      	b.n	1eb0 <_ZN5YAPFS10disk_ioctlEhhPv+0x84>
    1ef2:	3d01      	subs	r5, #1
    1ef4:	2d00      	cmp	r5, #0
    1ef6:	d1b5      	bne.n	1e64 <_ZN5YAPFS10disk_ioctlEhhPv+0x38>
    1ef8:	f7ff fc7e 	bl	17f8 <_ZN5YAPFS8deselectEv>
    1efc:	e7a6      	b.n	1e4c <_ZN5YAPFS10disk_ioctlEhhPv+0x20>
    1efe:	46c0      	nop			; (mov r8, r8)
    1f00:	0108      	lsls	r0, r1, #4
    1f02:	1000      	asrs	r0, r0, #32

00001f04 <_Z9initYAPFSv>:
_Z9initYAPFSv():
    1f04:	4b1c      	ldr	r3, [pc, #112]	; (1f78 <_Z9initYAPFSv+0x74>)
    1f06:	b570      	push	{r4, r5, r6, lr}
    1f08:	681c      	ldr	r4, [r3, #0]
    1f0a:	2c01      	cmp	r4, #1
    1f0c:	d133      	bne.n	1f76 <_Z9initYAPFSv+0x72>
    1f0e:	2500      	movs	r5, #0
    1f10:	21a0      	movs	r1, #160	; 0xa0
    1f12:	2280      	movs	r2, #128	; 0x80
    1f14:	4b19      	ldr	r3, [pc, #100]	; (1f7c <_Z9initYAPFSv+0x78>)
    1f16:	0609      	lsls	r1, r1, #24
    1f18:	701d      	strb	r5, [r3, #0]
    1f1a:	2380      	movs	r3, #128	; 0x80
    1f1c:	0192      	lsls	r2, r2, #6
    1f1e:	5888      	ldr	r0, [r1, r2]
    1f20:	4303      	orrs	r3, r0
    1f22:	508b      	str	r3, [r1, r2]
    1f24:	f002 f9f4 	bl	4310 <_Z9pokInitSDv>
    1f28:	2380      	movs	r3, #128	; 0x80
    1f2a:	4915      	ldr	r1, [pc, #84]	; (1f80 <_Z9initYAPFSv+0x7c>)
    1f2c:	011b      	lsls	r3, r3, #4
    1f2e:	6fc8      	ldr	r0, [r1, #124]	; 0x7c
    1f30:	4a14      	ldr	r2, [pc, #80]	; (1f84 <_Z9initYAPFSv+0x80>)
    1f32:	4303      	orrs	r3, r0
    1f34:	67cb      	str	r3, [r1, #124]	; 0x7c
    1f36:	4b14      	ldr	r3, [pc, #80]	; (1f88 <_Z9initYAPFSv+0x84>)
    1f38:	601c      	str	r4, [r3, #0]
    1f3a:	6853      	ldr	r3, [r2, #4]
    1f3c:	4323      	orrs	r3, r4
    1f3e:	6053      	str	r3, [r2, #4]
    1f40:	2307      	movs	r3, #7
    1f42:	4a12      	ldr	r2, [pc, #72]	; (1f8c <_Z9initYAPFSv+0x88>)
    1f44:	6a51      	ldr	r1, [r2, #36]	; 0x24
    1f46:	4399      	bics	r1, r3
    1f48:	4321      	orrs	r1, r4
    1f4a:	6251      	str	r1, [r2, #36]	; 0x24
    1f4c:	6a11      	ldr	r1, [r2, #32]
    1f4e:	4399      	bics	r1, r3
    1f50:	430c      	orrs	r4, r1
    1f52:	2102      	movs	r1, #2
    1f54:	6214      	str	r4, [r2, #32]
    1f56:	6990      	ldr	r0, [r2, #24]
    1f58:	4398      	bics	r0, r3
    1f5a:	4308      	orrs	r0, r1
    1f5c:	6190      	str	r0, [r2, #24]
    1f5e:	4a0c      	ldr	r2, [pc, #48]	; (1f90 <_Z9initYAPFSv+0x8c>)
    1f60:	6810      	ldr	r0, [r2, #0]
    1f62:	4303      	orrs	r3, r0
    1f64:	6013      	str	r3, [r2, #0]
    1f66:	6111      	str	r1, [r2, #16]
    1f68:	6853      	ldr	r3, [r2, #4]
    1f6a:	0028      	movs	r0, r5
    1f6c:	4319      	orrs	r1, r3
    1f6e:	6051      	str	r1, [r2, #4]
    1f70:	4908      	ldr	r1, [pc, #32]	; (1f94 <_Z9initYAPFSv+0x90>)
    1f72:	f000 fe2b 	bl	2bcc <_ZN5YAPFS7f_mountEhPNS_5FATFSE>
    1f76:	bd70      	pop	{r4, r5, r6, pc}
    1f78:	0108      	lsls	r0, r1, #4
    1f7a:	1000      	asrs	r0, r0, #32
    1f7c:	0264      	lsls	r4, r4, #9
    1f7e:	1000      	asrs	r0, r0, #32
    1f80:	8004      	strh	r4, [r0, #0]
    1f82:	4004      	ands	r4, r0
    1f84:	8000      	strh	r0, [r0, #0]
    1f86:	4004      	ands	r4, r0
    1f88:	8094      	strh	r4, [r2, #4]
    1f8a:	4004      	ands	r4, r0
    1f8c:	4000      	ands	r0, r0
    1f8e:	4004      	ands	r4, r0
    1f90:	0000      	movs	r0, r0
    1f92:	4004      	ands	r4, r0
    1f94:	0268      	lsls	r0, r5, #9
    1f96:	1000      	asrs	r0, r0, #32

00001f98 <_ZN5YAPFSL7sum_sfnEPKh>:
_ZN5YAPFSL7sum_sfnEPKh():
    1f98:	0002      	movs	r2, r0
    1f9a:	2300      	movs	r3, #0
    1f9c:	b510      	push	{r4, lr}
    1f9e:	320b      	adds	r2, #11
    1fa0:	7804      	ldrb	r4, [r0, #0]
    1fa2:	0859      	lsrs	r1, r3, #1
    1fa4:	01db      	lsls	r3, r3, #7
    1fa6:	191b      	adds	r3, r3, r4
    1fa8:	185b      	adds	r3, r3, r1
    1faa:	3001      	adds	r0, #1
    1fac:	b2db      	uxtb	r3, r3
    1fae:	4290      	cmp	r0, r2
    1fb0:	d1f6      	bne.n	1fa0 <_ZN5YAPFSL7sum_sfnEPKh+0x8>
    1fb2:	0018      	movs	r0, r3
    1fb4:	bd10      	pop	{r4, pc}

00001fb6 <_ZN5YAPFSL8validateEPv>:
_ZN5YAPFSL8validateEPv():
    1fb6:	b510      	push	{r4, lr}
    1fb8:	6802      	ldr	r2, [r0, #0]
    1fba:	2309      	movs	r3, #9
    1fbc:	2a00      	cmp	r2, #0
    1fbe:	d00d      	beq.n	1fdc <_ZN5YAPFSL8validateEPv+0x26>
    1fc0:	7811      	ldrb	r1, [r2, #0]
    1fc2:	2900      	cmp	r1, #0
    1fc4:	d00a      	beq.n	1fdc <_ZN5YAPFSL8validateEPv+0x26>
    1fc6:	88d4      	ldrh	r4, [r2, #6]
    1fc8:	8881      	ldrh	r1, [r0, #4]
    1fca:	428c      	cmp	r4, r1
    1fcc:	d106      	bne.n	1fdc <_ZN5YAPFSL8validateEPv+0x26>
    1fce:	7850      	ldrb	r0, [r2, #1]
    1fd0:	f7ff feaa 	bl	1d28 <_ZN5YAPFS11disk_statusEh>
    1fd4:	2300      	movs	r3, #0
    1fd6:	07c2      	lsls	r2, r0, #31
    1fd8:	d500      	bpl.n	1fdc <_ZN5YAPFSL8validateEPv+0x26>
    1fda:	3303      	adds	r3, #3
    1fdc:	0018      	movs	r0, r3
    1fde:	bd10      	pop	{r4, pc}

00001fe0 <_ZN5YAPFSL8ld_clustEPNS_5FATFSEPh.isra.0>:
_ZN5YAPFSL8ld_clustEPNS_5FATFSEPh.isra.0():
    1fe0:	7eca      	ldrb	r2, [r1, #27]
    1fe2:	b510      	push	{r4, lr}
    1fe4:	0004      	movs	r4, r0
    1fe6:	7e88      	ldrb	r0, [r1, #26]
    1fe8:	0212      	lsls	r2, r2, #8
    1fea:	4310      	orrs	r0, r2
    1fec:	2c03      	cmp	r4, #3
    1fee:	d105      	bne.n	1ffc <_ZN5YAPFSL8ld_clustEPNS_5FATFSEPh.isra.0+0x1c>
    1ff0:	7d4a      	ldrb	r2, [r1, #21]
    1ff2:	7d0b      	ldrb	r3, [r1, #20]
    1ff4:	0212      	lsls	r2, r2, #8
    1ff6:	4313      	orrs	r3, r2
    1ff8:	041b      	lsls	r3, r3, #16
    1ffa:	4318      	orrs	r0, r3
    1ffc:	bd10      	pop	{r4, pc}

00001ffe <_ZN5YAPFSL11move_windowEPNS_5FATFSEm>:
_ZN5YAPFSL11move_windowEPNS_5FATFSEm():
    1ffe:	b5f7      	push	{r0, r1, r2, r4, r5, r6, r7, lr}
    2000:	6ac5      	ldr	r5, [r0, #44]	; 0x2c
    2002:	0004      	movs	r4, r0
    2004:	000f      	movs	r7, r1
    2006:	428d      	cmp	r5, r1
    2008:	d101      	bne.n	200e <_ZN5YAPFSL11move_windowEPNS_5FATFSEm+0x10>
    200a:	2000      	movs	r0, #0
    200c:	bdfe      	pop	{r1, r2, r3, r4, r5, r6, r7, pc}
    200e:	7903      	ldrb	r3, [r0, #4]
    2010:	2b00      	cmp	r3, #0
    2012:	d020      	beq.n	2056 <_ZN5YAPFSL11move_windowEPNS_5FATFSEm+0x58>
    2014:	0003      	movs	r3, r0
    2016:	3330      	adds	r3, #48	; 0x30
    2018:	9301      	str	r3, [sp, #4]
    201a:	7840      	ldrb	r0, [r0, #1]
    201c:	2301      	movs	r3, #1
    201e:	002a      	movs	r2, r5
    2020:	9901      	ldr	r1, [sp, #4]
    2022:	f7ff fec5 	bl	1db0 <_ZN5YAPFS10disk_writeEhPKhmh>
    2026:	2800      	cmp	r0, #0
    2028:	d001      	beq.n	202e <_ZN5YAPFSL11move_windowEPNS_5FATFSEm+0x30>
    202a:	2001      	movs	r0, #1
    202c:	e7ee      	b.n	200c <_ZN5YAPFSL11move_windowEPNS_5FATFSEm+0xe>
    202e:	6a23      	ldr	r3, [r4, #32]
    2030:	69e2      	ldr	r2, [r4, #28]
    2032:	7120      	strb	r0, [r4, #4]
    2034:	189b      	adds	r3, r3, r2
    2036:	42ab      	cmp	r3, r5
    2038:	d90d      	bls.n	2056 <_ZN5YAPFSL11move_windowEPNS_5FATFSEm+0x58>
    203a:	78e6      	ldrb	r6, [r4, #3]
    203c:	2e01      	cmp	r6, #1
    203e:	d90a      	bls.n	2056 <_ZN5YAPFSL11move_windowEPNS_5FATFSEm+0x58>
    2040:	69e3      	ldr	r3, [r4, #28]
    2042:	7860      	ldrb	r0, [r4, #1]
    2044:	18ed      	adds	r5, r5, r3
    2046:	002a      	movs	r2, r5
    2048:	2301      	movs	r3, #1
    204a:	9901      	ldr	r1, [sp, #4]
    204c:	3e01      	subs	r6, #1
    204e:	f7ff feaf 	bl	1db0 <_ZN5YAPFS10disk_writeEhPKhmh>
    2052:	b2f6      	uxtb	r6, r6
    2054:	e7f2      	b.n	203c <_ZN5YAPFSL11move_windowEPNS_5FATFSEm+0x3e>
    2056:	2f00      	cmp	r7, #0
    2058:	d0d7      	beq.n	200a <_ZN5YAPFSL11move_windowEPNS_5FATFSEm+0xc>
    205a:	0021      	movs	r1, r4
    205c:	7860      	ldrb	r0, [r4, #1]
    205e:	2301      	movs	r3, #1
    2060:	003a      	movs	r2, r7
    2062:	3130      	adds	r1, #48	; 0x30
    2064:	f7ff fe6a 	bl	1d3c <_ZN5YAPFS9disk_readEhPhmh>
    2068:	2800      	cmp	r0, #0
    206a:	d1de      	bne.n	202a <_ZN5YAPFSL11move_windowEPNS_5FATFSEm+0x2c>
    206c:	62e7      	str	r7, [r4, #44]	; 0x2c
    206e:	e7cd      	b.n	200c <_ZN5YAPFSL11move_windowEPNS_5FATFSEm+0xe>

00002070 <_ZN5YAPFSL8check_fsEPNS_5FATFSEm>:
_ZN5YAPFSL8check_fsEPNS_5FATFSEm():
    2070:	000a      	movs	r2, r1
    2072:	0001      	movs	r1, r0
    2074:	b510      	push	{r4, lr}
    2076:	2301      	movs	r3, #1
    2078:	0004      	movs	r4, r0
    207a:	3130      	adds	r1, #48	; 0x30
    207c:	7840      	ldrb	r0, [r0, #1]
    207e:	f7ff fe5d 	bl	1d3c <_ZN5YAPFS9disk_readEhPhmh>
    2082:	2303      	movs	r3, #3
    2084:	2800      	cmp	r0, #0
    2086:	d124      	bne.n	20d2 <_ZN5YAPFSL8check_fsEPNS_5FATFSEm+0x62>
    2088:	4b13      	ldr	r3, [pc, #76]	; (20d8 <_ZN5YAPFSL8check_fsEPNS_5FATFSEm+0x68>)
    208a:	4a14      	ldr	r2, [pc, #80]	; (20dc <_ZN5YAPFSL8check_fsEPNS_5FATFSEm+0x6c>)
    208c:	5ce3      	ldrb	r3, [r4, r3]
    208e:	5ca2      	ldrb	r2, [r4, r2]
    2090:	021b      	lsls	r3, r3, #8
    2092:	431a      	orrs	r2, r3
    2094:	4912      	ldr	r1, [pc, #72]	; (20e0 <_ZN5YAPFSL8check_fsEPNS_5FATFSEm+0x70>)
    2096:	b212      	sxth	r2, r2
    2098:	2302      	movs	r3, #2
    209a:	428a      	cmp	r2, r1
    209c:	d119      	bne.n	20d2 <_ZN5YAPFSL8check_fsEPNS_5FATFSEm+0x62>
    209e:	0023      	movs	r3, r4
    20a0:	3366      	adds	r3, #102	; 0x66
    20a2:	885a      	ldrh	r2, [r3, #2]
    20a4:	8819      	ldrh	r1, [r3, #0]
    20a6:	0412      	lsls	r2, r2, #16
    20a8:	430a      	orrs	r2, r1
    20aa:	490e      	ldr	r1, [pc, #56]	; (20e4 <_ZN5YAPFSL8check_fsEPNS_5FATFSEm+0x74>)
    20ac:	0212      	lsls	r2, r2, #8
    20ae:	0a12      	lsrs	r2, r2, #8
    20b0:	0003      	movs	r3, r0
    20b2:	428a      	cmp	r2, r1
    20b4:	d00d      	beq.n	20d2 <_ZN5YAPFSL8check_fsEPNS_5FATFSEm+0x62>
    20b6:	0023      	movs	r3, r4
    20b8:	3484      	adds	r4, #132	; 0x84
    20ba:	3382      	adds	r3, #130	; 0x82
    20bc:	8818      	ldrh	r0, [r3, #0]
    20be:	8823      	ldrh	r3, [r4, #0]
    20c0:	4a09      	ldr	r2, [pc, #36]	; (20e8 <_ZN5YAPFSL8check_fsEPNS_5FATFSEm+0x78>)
    20c2:	041b      	lsls	r3, r3, #16
    20c4:	4303      	orrs	r3, r0
    20c6:	021b      	lsls	r3, r3, #8
    20c8:	0a1b      	lsrs	r3, r3, #8
    20ca:	189b      	adds	r3, r3, r2
    20cc:	1e58      	subs	r0, r3, #1
    20ce:	4183      	sbcs	r3, r0
    20d0:	b2db      	uxtb	r3, r3
    20d2:	0018      	movs	r0, r3
    20d4:	bd10      	pop	{r4, pc}
    20d6:	46c0      	nop			; (mov r8, r8)
    20d8:	022f      	lsls	r7, r5, #8
    20da:	0000      	movs	r0, r0
    20dc:	022e      	lsls	r6, r5, #8
    20de:	0000      	movs	r0, r0
    20e0:	aa55      	add	r2, sp, #340	; 0x154
    20e2:	ffff 4146 			; <UNDEFINED> instruction: 0xffff4146
    20e6:	0054      	lsls	r4, r2, #1
    20e8:	beba      	bkpt	0x00ba
    20ea:	ffab  	vsli.64	<illegal reg q5.5>, q8, #43	; 0x2b

000020ec <_ZN5YAPFSL11chk_mountedEPPKcPPNS_5FATFSEh>:
_ZN5YAPFSL11chk_mountedEPPKcPPNS_5FATFSEh():
    20ec:	b5f0      	push	{r4, r5, r6, r7, lr}
    20ee:	6803      	ldr	r3, [r0, #0]
    20f0:	0015      	movs	r5, r2
    20f2:	781a      	ldrb	r2, [r3, #0]
    20f4:	b087      	sub	sp, #28
    20f6:	3a30      	subs	r2, #48	; 0x30
    20f8:	2a09      	cmp	r2, #9
    20fa:	d80c      	bhi.n	2116 <_ZN5YAPFSL11chk_mountedEPPKcPPNS_5FATFSEh+0x2a>
    20fc:	785c      	ldrb	r4, [r3, #1]
    20fe:	2c3a      	cmp	r4, #58	; 0x3a
    2100:	d109      	bne.n	2116 <_ZN5YAPFSL11chk_mountedEPPKcPPNS_5FATFSEh+0x2a>
    2102:	3302      	adds	r3, #2
    2104:	6003      	str	r3, [r0, #0]
    2106:	2300      	movs	r3, #0
    2108:	600b      	str	r3, [r1, #0]
    210a:	330b      	adds	r3, #11
    210c:	2a00      	cmp	r2, #0
    210e:	d004      	beq.n	211a <_ZN5YAPFSL11chk_mountedEPPKcPPNS_5FATFSEh+0x2e>
    2110:	0018      	movs	r0, r3
    2112:	b007      	add	sp, #28
    2114:	bdf0      	pop	{r4, r5, r6, r7, pc}
    2116:	2300      	movs	r3, #0
    2118:	600b      	str	r3, [r1, #0]
    211a:	4b8b      	ldr	r3, [pc, #556]	; (2348 <_ZN5YAPFSL11chk_mountedEPPKcPPNS_5FATFSEh+0x25c>)
    211c:	681c      	ldr	r4, [r3, #0]
    211e:	230c      	movs	r3, #12
    2120:	2c00      	cmp	r4, #0
    2122:	d0f5      	beq.n	2110 <_ZN5YAPFSL11chk_mountedEPPKcPPNS_5FATFSEh+0x24>
    2124:	600c      	str	r4, [r1, #0]
    2126:	7823      	ldrb	r3, [r4, #0]
    2128:	2b00      	cmp	r3, #0
    212a:	d00c      	beq.n	2146 <_ZN5YAPFSL11chk_mountedEPPKcPPNS_5FATFSEh+0x5a>
    212c:	7860      	ldrb	r0, [r4, #1]
    212e:	f7ff fdfb 	bl	1d28 <_ZN5YAPFS11disk_statusEh>
    2132:	2201      	movs	r2, #1
    2134:	4002      	ands	r2, r0
    2136:	d106      	bne.n	2146 <_ZN5YAPFSL11chk_mountedEPPKcPPNS_5FATFSEh+0x5a>
    2138:	1e2b      	subs	r3, r5, #0
    213a:	d0e9      	beq.n	2110 <_ZN5YAPFSL11chk_mountedEPPKcPPNS_5FATFSEh+0x24>
    213c:	0013      	movs	r3, r2
    213e:	0742      	lsls	r2, r0, #29
    2140:	d5e6      	bpl.n	2110 <_ZN5YAPFSL11chk_mountedEPPKcPPNS_5FATFSEh+0x24>
    2142:	230a      	movs	r3, #10
    2144:	e7e4      	b.n	2110 <_ZN5YAPFSL11chk_mountedEPPKcPPNS_5FATFSEh+0x24>
    2146:	2000      	movs	r0, #0
    2148:	8020      	strh	r0, [r4, #0]
    214a:	f7ff fd37 	bl	1bbc <_ZN5YAPFS15disk_initializeEh>
    214e:	2303      	movs	r3, #3
    2150:	07c2      	lsls	r2, r0, #31
    2152:	d4dd      	bmi.n	2110 <_ZN5YAPFSL11chk_mountedEPPKcPPNS_5FATFSEh+0x24>
    2154:	2d00      	cmp	r5, #0
    2156:	d001      	beq.n	215c <_ZN5YAPFSL11chk_mountedEPPKcPPNS_5FATFSEh+0x70>
    2158:	0743      	lsls	r3, r0, #29
    215a:	d4f2      	bmi.n	2142 <_ZN5YAPFSL11chk_mountedEPPKcPPNS_5FATFSEh+0x56>
    215c:	2100      	movs	r1, #0
    215e:	0020      	movs	r0, r4
    2160:	f7ff ff86 	bl	2070 <_ZN5YAPFSL8check_fsEPNS_5FATFSEm>
    2164:	2300      	movs	r3, #0
    2166:	9301      	str	r3, [sp, #4]
    2168:	2801      	cmp	r0, #1
    216a:	d11a      	bne.n	21a2 <_ZN5YAPFSL11chk_mountedEPPKcPPNS_5FATFSEh+0xb6>
    216c:	33f3      	adds	r3, #243	; 0xf3
    216e:	33ff      	adds	r3, #255	; 0xff
    2170:	5ce3      	ldrb	r3, [r4, r3]
    2172:	2b00      	cmp	r3, #0
    2174:	d101      	bne.n	217a <_ZN5YAPFSL11chk_mountedEPPKcPPNS_5FATFSEh+0x8e>
    2176:	230d      	movs	r3, #13
    2178:	e7ca      	b.n	2110 <_ZN5YAPFSL11chk_mountedEPPKcPPNS_5FATFSEh+0x24>
    217a:	0021      	movs	r1, r4
    217c:	23fb      	movs	r3, #251	; 0xfb
    217e:	31f7      	adds	r1, #247	; 0xf7
    2180:	31ff      	adds	r1, #255	; 0xff
    2182:	784a      	ldrb	r2, [r1, #1]
    2184:	005b      	lsls	r3, r3, #1
    2186:	5ce3      	ldrb	r3, [r4, r3]
    2188:	0212      	lsls	r2, r2, #8
    218a:	4313      	orrs	r3, r2
    218c:	788a      	ldrb	r2, [r1, #2]
    218e:	0020      	movs	r0, r4
    2190:	0412      	lsls	r2, r2, #16
    2192:	431a      	orrs	r2, r3
    2194:	78cb      	ldrb	r3, [r1, #3]
    2196:	061b      	lsls	r3, r3, #24
    2198:	4313      	orrs	r3, r2
    219a:	0019      	movs	r1, r3
    219c:	9301      	str	r3, [sp, #4]
    219e:	f7ff ff67 	bl	2070 <_ZN5YAPFSL8check_fsEPNS_5FATFSEm>
    21a2:	2301      	movs	r3, #1
    21a4:	2803      	cmp	r0, #3
    21a6:	d0b3      	beq.n	2110 <_ZN5YAPFSL11chk_mountedEPPKcPPNS_5FATFSEh+0x24>
    21a8:	2800      	cmp	r0, #0
    21aa:	d1e4      	bne.n	2176 <_ZN5YAPFSL11chk_mountedEPPKcPPNS_5FATFSEh+0x8a>
    21ac:	0023      	movs	r3, r4
    21ae:	333c      	adds	r3, #60	; 0x3c
    21b0:	781a      	ldrb	r2, [r3, #0]
    21b2:	3b01      	subs	r3, #1
    21b4:	781b      	ldrb	r3, [r3, #0]
    21b6:	0212      	lsls	r2, r2, #8
    21b8:	4313      	orrs	r3, r2
    21ba:	2280      	movs	r2, #128	; 0x80
    21bc:	b21b      	sxth	r3, r3
    21be:	0092      	lsls	r2, r2, #2
    21c0:	4293      	cmp	r3, r2
    21c2:	d1d8      	bne.n	2176 <_ZN5YAPFSL11chk_mountedEPPKcPPNS_5FATFSEh+0x8a>
    21c4:	0023      	movs	r3, r4
    21c6:	3347      	adds	r3, #71	; 0x47
    21c8:	781a      	ldrb	r2, [r3, #0]
    21ca:	3b01      	subs	r3, #1
    21cc:	781b      	ldrb	r3, [r3, #0]
    21ce:	0212      	lsls	r2, r2, #8
    21d0:	4313      	orrs	r3, r2
    21d2:	d100      	bne.n	21d6 <_ZN5YAPFSL11chk_mountedEPPKcPPNS_5FATFSEh+0xea>
    21d4:	e0a5      	b.n	2322 <_ZN5YAPFSL11chk_mountedEPPKcPPNS_5FATFSEh+0x236>
    21d6:	9302      	str	r3, [sp, #8]
    21d8:	9b02      	ldr	r3, [sp, #8]
    21da:	61e3      	str	r3, [r4, #28]
    21dc:	0023      	movs	r3, r4
    21de:	3340      	adds	r3, #64	; 0x40
    21e0:	781b      	ldrb	r3, [r3, #0]
    21e2:	1e5a      	subs	r2, r3, #1
    21e4:	70e3      	strb	r3, [r4, #3]
    21e6:	2a01      	cmp	r2, #1
    21e8:	d8c5      	bhi.n	2176 <_ZN5YAPFSL11chk_mountedEPPKcPPNS_5FATFSEh+0x8a>
    21ea:	0022      	movs	r2, r4
    21ec:	323d      	adds	r2, #61	; 0x3d
    21ee:	7817      	ldrb	r7, [r2, #0]
    21f0:	70a7      	strb	r7, [r4, #2]
    21f2:	2f00      	cmp	r7, #0
    21f4:	d0bf      	beq.n	2176 <_ZN5YAPFSL11chk_mountedEPPKcPPNS_5FATFSEh+0x8a>
    21f6:	1e7a      	subs	r2, r7, #1
    21f8:	4217      	tst	r7, r2
    21fa:	d1bc      	bne.n	2176 <_ZN5YAPFSL11chk_mountedEPPKcPPNS_5FATFSEh+0x8a>
    21fc:	0022      	movs	r2, r4
    21fe:	3242      	adds	r2, #66	; 0x42
    2200:	7816      	ldrb	r6, [r2, #0]
    2202:	3a01      	subs	r2, #1
    2204:	7812      	ldrb	r2, [r2, #0]
    2206:	0236      	lsls	r6, r6, #8
    2208:	4316      	orrs	r6, r2
    220a:	8126      	strh	r6, [r4, #8]
    220c:	0732      	lsls	r2, r6, #28
    220e:	d1b2      	bne.n	2176 <_ZN5YAPFSL11chk_mountedEPPKcPPNS_5FATFSEh+0x8a>
    2210:	0022      	movs	r2, r4
    2212:	0021      	movs	r1, r4
    2214:	3244      	adds	r2, #68	; 0x44
    2216:	7812      	ldrb	r2, [r2, #0]
    2218:	3143      	adds	r1, #67	; 0x43
    221a:	780d      	ldrb	r5, [r1, #0]
    221c:	0212      	lsls	r2, r2, #8
    221e:	4315      	orrs	r5, r2
    2220:	d100      	bne.n	2224 <_ZN5YAPFSL11chk_mountedEPPKcPPNS_5FATFSEh+0x138>
    2222:	6d25      	ldr	r5, [r4, #80]	; 0x50
    2224:	0022      	movs	r2, r4
    2226:	0021      	movs	r1, r4
    2228:	323f      	adds	r2, #63	; 0x3f
    222a:	7812      	ldrb	r2, [r2, #0]
    222c:	313e      	adds	r1, #62	; 0x3e
    222e:	7809      	ldrb	r1, [r1, #0]
    2230:	0212      	lsls	r2, r2, #8
    2232:	4311      	orrs	r1, r2
    2234:	9103      	str	r1, [sp, #12]
    2236:	d09e      	beq.n	2176 <_ZN5YAPFSL11chk_mountedEPPKcPPNS_5FATFSEh+0x8a>
    2238:	9a02      	ldr	r2, [sp, #8]
    223a:	435a      	muls	r2, r3
    223c:	9205      	str	r2, [sp, #20]
    223e:	0933      	lsrs	r3, r6, #4
    2240:	9a05      	ldr	r2, [sp, #20]
    2242:	185b      	adds	r3, r3, r1
    2244:	189b      	adds	r3, r3, r2
    2246:	9304      	str	r3, [sp, #16]
    2248:	429d      	cmp	r5, r3
    224a:	d394      	bcc.n	2176 <_ZN5YAPFSL11chk_mountedEPPKcPPNS_5FATFSEh+0x8a>
    224c:	1aed      	subs	r5, r5, r3
    224e:	0039      	movs	r1, r7
    2250:	0028      	movs	r0, r5
    2252:	f00a fc07 	bl	ca64 <__udivsi3>
    2256:	42bd      	cmp	r5, r7
    2258:	d38d      	bcc.n	2176 <_ZN5YAPFSL11chk_mountedEPPKcPPNS_5FATFSEh+0x8a>
    225a:	4b3c      	ldr	r3, [pc, #240]	; (234c <_ZN5YAPFSL11chk_mountedEPPKcPPNS_5FATFSEh+0x260>)
    225c:	2501      	movs	r5, #1
    225e:	4298      	cmp	r0, r3
    2260:	d904      	bls.n	226c <_ZN5YAPFSL11chk_mountedEPPKcPPNS_5FATFSEh+0x180>
    2262:	4d3b      	ldr	r5, [pc, #236]	; (2350 <_ZN5YAPFSL11chk_mountedEPPKcPPNS_5FATFSEh+0x264>)
    2264:	4285      	cmp	r5, r0
    2266:	41ad      	sbcs	r5, r5
    2268:	426d      	negs	r5, r5
    226a:	3502      	adds	r5, #2
    226c:	9a01      	ldr	r2, [sp, #4]
    226e:	9b04      	ldr	r3, [sp, #16]
    2270:	4694      	mov	ip, r2
    2272:	4463      	add	r3, ip
    2274:	62a3      	str	r3, [r4, #40]	; 0x28
    2276:	9b03      	ldr	r3, [sp, #12]
    2278:	3002      	adds	r0, #2
    227a:	4463      	add	r3, ip
    227c:	61a0      	str	r0, [r4, #24]
    227e:	6223      	str	r3, [r4, #32]
    2280:	2d03      	cmp	r5, #3
    2282:	d150      	bne.n	2326 <_ZN5YAPFSL11chk_mountedEPPKcPPNS_5FATFSEh+0x23a>
    2284:	2e00      	cmp	r6, #0
    2286:	d000      	beq.n	228a <_ZN5YAPFSL11chk_mountedEPPKcPPNS_5FATFSEh+0x19e>
    2288:	e775      	b.n	2176 <_ZN5YAPFSL11chk_mountedEPPKcPPNS_5FATFSEh+0x8a>
    228a:	6de3      	ldr	r3, [r4, #92]	; 0x5c
    228c:	0080      	lsls	r0, r0, #2
    228e:	6263      	str	r3, [r4, #36]	; 0x24
    2290:	4b30      	ldr	r3, [pc, #192]	; (2354 <_ZN5YAPFSL11chk_mountedEPPKcPPNS_5FATFSEh+0x268>)
    2292:	18c0      	adds	r0, r0, r3
    2294:	9b02      	ldr	r3, [sp, #8]
    2296:	0a40      	lsrs	r0, r0, #9
    2298:	4298      	cmp	r0, r3
    229a:	d900      	bls.n	229e <_ZN5YAPFSL11chk_mountedEPPKcPPNS_5FATFSEh+0x1b2>
    229c:	e76b      	b.n	2176 <_ZN5YAPFSL11chk_mountedEPPKcPPNS_5FATFSEh+0x8a>
    229e:	2301      	movs	r3, #1
    22a0:	425b      	negs	r3, r3
    22a2:	6123      	str	r3, [r4, #16]
    22a4:	2300      	movs	r3, #0
    22a6:	60e3      	str	r3, [r4, #12]
    22a8:	2d03      	cmp	r5, #3
    22aa:	d12f      	bne.n	230c <_ZN5YAPFSL11chk_mountedEPPKcPPNS_5FATFSEh+0x220>
    22ac:	7163      	strb	r3, [r4, #5]
    22ae:	0023      	movs	r3, r4
    22b0:	0022      	movs	r2, r4
    22b2:	0021      	movs	r1, r4
    22b4:	3361      	adds	r3, #97	; 0x61
    22b6:	781b      	ldrb	r3, [r3, #0]
    22b8:	3260      	adds	r2, #96	; 0x60
    22ba:	7812      	ldrb	r2, [r2, #0]
    22bc:	021b      	lsls	r3, r3, #8
    22be:	431a      	orrs	r2, r3
    22c0:	9b01      	ldr	r3, [sp, #4]
    22c2:	7860      	ldrb	r0, [r4, #1]
    22c4:	18d2      	adds	r2, r2, r3
    22c6:	6162      	str	r2, [r4, #20]
    22c8:	2301      	movs	r3, #1
    22ca:	3130      	adds	r1, #48	; 0x30
    22cc:	f7ff fd36 	bl	1d3c <_ZN5YAPFS9disk_readEhPhmh>
    22d0:	2800      	cmp	r0, #0
    22d2:	d11b      	bne.n	230c <_ZN5YAPFSL11chk_mountedEPPKcPPNS_5FATFSEh+0x220>
    22d4:	4b20      	ldr	r3, [pc, #128]	; (2358 <_ZN5YAPFSL11chk_mountedEPPKcPPNS_5FATFSEh+0x26c>)
    22d6:	5ce2      	ldrb	r2, [r4, r3]
    22d8:	4b20      	ldr	r3, [pc, #128]	; (235c <_ZN5YAPFSL11chk_mountedEPPKcPPNS_5FATFSEh+0x270>)
    22da:	0212      	lsls	r2, r2, #8
    22dc:	5ce3      	ldrb	r3, [r4, r3]
    22de:	4313      	orrs	r3, r2
    22e0:	4a1f      	ldr	r2, [pc, #124]	; (2360 <_ZN5YAPFSL11chk_mountedEPPKcPPNS_5FATFSEh+0x274>)
    22e2:	b21b      	sxth	r3, r3
    22e4:	4293      	cmp	r3, r2
    22e6:	d111      	bne.n	230c <_ZN5YAPFSL11chk_mountedEPPKcPPNS_5FATFSEh+0x220>
    22e8:	4b1e      	ldr	r3, [pc, #120]	; (2364 <_ZN5YAPFSL11chk_mountedEPPKcPPNS_5FATFSEh+0x278>)
    22ea:	6b22      	ldr	r2, [r4, #48]	; 0x30
    22ec:	429a      	cmp	r2, r3
    22ee:	d10d      	bne.n	230c <_ZN5YAPFSL11chk_mountedEPPKcPPNS_5FATFSEh+0x220>
    22f0:	2285      	movs	r2, #133	; 0x85
    22f2:	0092      	lsls	r2, r2, #2
    22f4:	4b1c      	ldr	r3, [pc, #112]	; (2368 <_ZN5YAPFSL11chk_mountedEPPKcPPNS_5FATFSEh+0x27c>)
    22f6:	58a2      	ldr	r2, [r4, r2]
    22f8:	429a      	cmp	r2, r3
    22fa:	d107      	bne.n	230c <_ZN5YAPFSL11chk_mountedEPPKcPPNS_5FATFSEh+0x220>
    22fc:	2387      	movs	r3, #135	; 0x87
    22fe:	009b      	lsls	r3, r3, #2
    2300:	58e3      	ldr	r3, [r4, r3]
    2302:	60e3      	str	r3, [r4, #12]
    2304:	2386      	movs	r3, #134	; 0x86
    2306:	009b      	lsls	r3, r3, #2
    2308:	58e3      	ldr	r3, [r4, r3]
    230a:	6123      	str	r3, [r4, #16]
    230c:	4a17      	ldr	r2, [pc, #92]	; (236c <_ZN5YAPFSL11chk_mountedEPPKcPPNS_5FATFSEh+0x280>)
    230e:	7025      	strb	r5, [r4, #0]
    2310:	8813      	ldrh	r3, [r2, #0]
    2312:	3301      	adds	r3, #1
    2314:	b29b      	uxth	r3, r3
    2316:	8013      	strh	r3, [r2, #0]
    2318:	80e3      	strh	r3, [r4, #6]
    231a:	2300      	movs	r3, #0
    231c:	62e3      	str	r3, [r4, #44]	; 0x2c
    231e:	7123      	strb	r3, [r4, #4]
    2320:	e6f6      	b.n	2110 <_ZN5YAPFSL11chk_mountedEPPKcPPNS_5FATFSEh+0x24>
    2322:	6d63      	ldr	r3, [r4, #84]	; 0x54
    2324:	e757      	b.n	21d6 <_ZN5YAPFSL11chk_mountedEPPKcPPNS_5FATFSEh+0xea>
    2326:	2e00      	cmp	r6, #0
    2328:	d100      	bne.n	232c <_ZN5YAPFSL11chk_mountedEPPKcPPNS_5FATFSEh+0x240>
    232a:	e724      	b.n	2176 <_ZN5YAPFSL11chk_mountedEPPKcPPNS_5FATFSEh+0x8a>
    232c:	9a05      	ldr	r2, [sp, #20]
    232e:	189b      	adds	r3, r3, r2
    2330:	6263      	str	r3, [r4, #36]	; 0x24
    2332:	2d02      	cmp	r5, #2
    2334:	d101      	bne.n	233a <_ZN5YAPFSL11chk_mountedEPPKcPPNS_5FATFSEh+0x24e>
    2336:	0040      	lsls	r0, r0, #1
    2338:	e7aa      	b.n	2290 <_ZN5YAPFSL11chk_mountedEPPKcPPNS_5FATFSEh+0x1a4>
    233a:	2303      	movs	r3, #3
    233c:	2201      	movs	r2, #1
    233e:	4343      	muls	r3, r0
    2340:	4010      	ands	r0, r2
    2342:	085b      	lsrs	r3, r3, #1
    2344:	1818      	adds	r0, r3, r0
    2346:	e7a3      	b.n	2290 <_ZN5YAPFSL11chk_mountedEPPKcPPNS_5FATFSEh+0x1a4>
    2348:	049c      	lsls	r4, r3, #18
    234a:	1000      	asrs	r0, r0, #32
    234c:	0ff5      	lsrs	r5, r6, #31
    234e:	0000      	movs	r0, r0
    2350:	fff5 0000 	vcgt.s16	d16, d0, #0
    2354:	01ff      	lsls	r7, r7, #7
    2356:	0000      	movs	r0, r0
    2358:	022f      	lsls	r7, r5, #8
    235a:	0000      	movs	r0, r0
    235c:	022e      	lsls	r6, r5, #8
    235e:	0000      	movs	r0, r0
    2360:	aa55      	add	r2, sp, #340	; 0x154
    2362:	ffff 5252 	vrshr.u32	<illegal reg q10.5>, q1, #1
    2366:	4161      	adcs	r1, r4
    2368:	7272      	strb	r2, [r6, #9]
    236a:	6141      	str	r1, [r0, #20]
    236c:	0498      	lsls	r0, r3, #18
    236e:	1000      	asrs	r0, r0, #32

00002370 <_ZN6MemOps4copyEPvPKvj>:
_ZN6MemOps4copyEPvPKvj():
    2370:	2a00      	cmp	r2, #0
    2372:	d011      	beq.n	2398 <_ZN6MemOps4copyEPvPKvj+0x28>
    2374:	1880      	adds	r0, r0, r2
    2376:	1889      	adds	r1, r1, r2
    2378:	0003      	movs	r3, r0
    237a:	430b      	orrs	r3, r1
    237c:	4313      	orrs	r3, r2
    237e:	079b      	lsls	r3, r3, #30
    2380:	d005      	beq.n	238e <_ZN6MemOps4copyEPvPKvj+0x1e>
    2382:	4252      	negs	r2, r2
    2384:	5c8b      	ldrb	r3, [r1, r2]
    2386:	5483      	strb	r3, [r0, r2]
    2388:	3201      	adds	r2, #1
    238a:	d1fb      	bne.n	2384 <_ZN6MemOps4copyEPvPKvj+0x14>
    238c:	4770      	bx	lr
    238e:	4252      	negs	r2, r2
    2390:	588b      	ldr	r3, [r1, r2]
    2392:	5083      	str	r3, [r0, r2]
    2394:	3204      	adds	r2, #4
    2396:	d1fb      	bne.n	2390 <_ZN6MemOps4copyEPvPKvj+0x20>
    2398:	4770      	bx	lr

0000239a <_ZN6MemOps3setEPvhj>:
_ZN6MemOps3setEPvhj():
    239a:	4252      	negs	r2, r2
    239c:	d003      	beq.n	23a6 <_ZN6MemOps3setEPvhj+0xc>
    239e:	1a80      	subs	r0, r0, r2
    23a0:	5481      	strb	r1, [r0, r2]
    23a2:	3201      	adds	r2, #1
    23a4:	d1fc      	bne.n	23a0 <_ZN6MemOps3setEPvhj+0x6>
    23a6:	4770      	bx	lr

000023a8 <_ZN5YAPFS10clust2sectEPNS_5FATFSEm>:
_ZN5YAPFS10clust2sectEPNS_5FATFSEm():
    23a8:	6982      	ldr	r2, [r0, #24]
    23aa:	3902      	subs	r1, #2
    23ac:	3a02      	subs	r2, #2
    23ae:	0003      	movs	r3, r0
    23b0:	2000      	movs	r0, #0
    23b2:	428a      	cmp	r2, r1
    23b4:	d903      	bls.n	23be <_ZN5YAPFS10clust2sectEPNS_5FATFSEm+0x16>
    23b6:	7898      	ldrb	r0, [r3, #2]
    23b8:	4341      	muls	r1, r0
    23ba:	6a98      	ldr	r0, [r3, #40]	; 0x28
    23bc:	1808      	adds	r0, r1, r0
    23be:	4770      	bx	lr

000023c0 <_ZN5YAPFS7get_fatEPNS_5FATFSEm>:
_ZN5YAPFS7get_fatEPNS_5FATFSEm():
    23c0:	b5f7      	push	{r0, r1, r2, r4, r5, r6, r7, lr}
    23c2:	0005      	movs	r5, r0
    23c4:	2001      	movs	r0, #1
    23c6:	000c      	movs	r4, r1
    23c8:	4281      	cmp	r1, r0
    23ca:	d933      	bls.n	2434 <_ZN5YAPFS7get_fatEPNS_5FATFSEm+0x74>
    23cc:	69ab      	ldr	r3, [r5, #24]
    23ce:	428b      	cmp	r3, r1
    23d0:	d930      	bls.n	2434 <_ZN5YAPFS7get_fatEPNS_5FATFSEm+0x74>
    23d2:	782f      	ldrb	r7, [r5, #0]
    23d4:	2f02      	cmp	r7, #2
    23d6:	d02e      	beq.n	2436 <_ZN5YAPFS7get_fatEPNS_5FATFSEm+0x76>
    23d8:	2f03      	cmp	r7, #3
    23da:	d03f      	beq.n	245c <_ZN5YAPFS7get_fatEPNS_5FATFSEm+0x9c>
    23dc:	4287      	cmp	r7, r0
    23de:	d109      	bne.n	23f4 <_ZN5YAPFS7get_fatEPNS_5FATFSEm+0x34>
    23e0:	084e      	lsrs	r6, r1, #1
    23e2:	1876      	adds	r6, r6, r1
    23e4:	6a2b      	ldr	r3, [r5, #32]
    23e6:	0a71      	lsrs	r1, r6, #9
    23e8:	18c9      	adds	r1, r1, r3
    23ea:	0028      	movs	r0, r5
    23ec:	f7ff fe07 	bl	1ffe <_ZN5YAPFSL11move_windowEPNS_5FATFSEm>
    23f0:	2800      	cmp	r0, #0
    23f2:	d002      	beq.n	23fa <_ZN5YAPFS7get_fatEPNS_5FATFSEm+0x3a>
    23f4:	2001      	movs	r0, #1
    23f6:	4240      	negs	r0, r0
    23f8:	e01c      	b.n	2434 <_ZN5YAPFS7get_fatEPNS_5FATFSEm+0x74>
    23fa:	05f3      	lsls	r3, r6, #23
    23fc:	0ddb      	lsrs	r3, r3, #23
    23fe:	18eb      	adds	r3, r5, r3
    2400:	3330      	adds	r3, #48	; 0x30
    2402:	781b      	ldrb	r3, [r3, #0]
    2404:	3601      	adds	r6, #1
    2406:	9301      	str	r3, [sp, #4]
    2408:	6a2b      	ldr	r3, [r5, #32]
    240a:	0a71      	lsrs	r1, r6, #9
    240c:	18c9      	adds	r1, r1, r3
    240e:	0028      	movs	r0, r5
    2410:	f7ff fdf5 	bl	1ffe <_ZN5YAPFSL11move_windowEPNS_5FATFSEm>
    2414:	2800      	cmp	r0, #0
    2416:	d1ed      	bne.n	23f4 <_ZN5YAPFS7get_fatEPNS_5FATFSEm+0x34>
    2418:	05f6      	lsls	r6, r6, #23
    241a:	0df6      	lsrs	r6, r6, #23
    241c:	19ad      	adds	r5, r5, r6
    241e:	3530      	adds	r5, #48	; 0x30
    2420:	7828      	ldrb	r0, [r5, #0]
    2422:	9b01      	ldr	r3, [sp, #4]
    2424:	0200      	lsls	r0, r0, #8
    2426:	4318      	orrs	r0, r3
    2428:	423c      	tst	r4, r7
    242a:	d001      	beq.n	2430 <_ZN5YAPFS7get_fatEPNS_5FATFSEm+0x70>
    242c:	0900      	lsrs	r0, r0, #4
    242e:	e001      	b.n	2434 <_ZN5YAPFS7get_fatEPNS_5FATFSEm+0x74>
    2430:	0500      	lsls	r0, r0, #20
    2432:	0d00      	lsrs	r0, r0, #20
    2434:	bdfe      	pop	{r1, r2, r3, r4, r5, r6, r7, pc}
    2436:	6a2b      	ldr	r3, [r5, #32]
    2438:	0a09      	lsrs	r1, r1, #8
    243a:	18c9      	adds	r1, r1, r3
    243c:	0028      	movs	r0, r5
    243e:	f7ff fdde 	bl	1ffe <_ZN5YAPFSL11move_windowEPNS_5FATFSEm>
    2442:	2800      	cmp	r0, #0
    2444:	d1d6      	bne.n	23f4 <_ZN5YAPFS7get_fatEPNS_5FATFSEm+0x34>
    2446:	23ff      	movs	r3, #255	; 0xff
    2448:	0064      	lsls	r4, r4, #1
    244a:	005b      	lsls	r3, r3, #1
    244c:	401c      	ands	r4, r3
    244e:	192d      	adds	r5, r5, r4
    2450:	3530      	adds	r5, #48	; 0x30
    2452:	786b      	ldrb	r3, [r5, #1]
    2454:	7828      	ldrb	r0, [r5, #0]
    2456:	021b      	lsls	r3, r3, #8
    2458:	4318      	orrs	r0, r3
    245a:	e7eb      	b.n	2434 <_ZN5YAPFS7get_fatEPNS_5FATFSEm+0x74>
    245c:	6a2b      	ldr	r3, [r5, #32]
    245e:	09c9      	lsrs	r1, r1, #7
    2460:	18c9      	adds	r1, r1, r3
    2462:	0028      	movs	r0, r5
    2464:	f7ff fdcb 	bl	1ffe <_ZN5YAPFSL11move_windowEPNS_5FATFSEm>
    2468:	2800      	cmp	r0, #0
    246a:	d1c3      	bne.n	23f4 <_ZN5YAPFS7get_fatEPNS_5FATFSEm+0x34>
    246c:	23fe      	movs	r3, #254	; 0xfe
    246e:	00a4      	lsls	r4, r4, #2
    2470:	005b      	lsls	r3, r3, #1
    2472:	401c      	ands	r4, r3
    2474:	0023      	movs	r3, r4
    2476:	3330      	adds	r3, #48	; 0x30
    2478:	18eb      	adds	r3, r5, r3
    247a:	78d8      	ldrb	r0, [r3, #3]
    247c:	789a      	ldrb	r2, [r3, #2]
    247e:	192d      	adds	r5, r5, r4
    2480:	0412      	lsls	r2, r2, #16
    2482:	0600      	lsls	r0, r0, #24
    2484:	3530      	adds	r5, #48	; 0x30
    2486:	4310      	orrs	r0, r2
    2488:	785b      	ldrb	r3, [r3, #1]
    248a:	782a      	ldrb	r2, [r5, #0]
    248c:	021b      	lsls	r3, r3, #8
    248e:	4310      	orrs	r0, r2
    2490:	4318      	orrs	r0, r3
    2492:	0100      	lsls	r0, r0, #4
    2494:	e7ca      	b.n	242c <_ZN5YAPFS7get_fatEPNS_5FATFSEm+0x6c>

00002496 <_ZN5YAPFSL7dir_sdiEPNS_9FATFS_DIREt>:
_ZN5YAPFSL7dir_sdiEPNS_9FATFS_DIREt():
    2496:	b570      	push	{r4, r5, r6, lr}
    2498:	0005      	movs	r5, r0
    249a:	000c      	movs	r4, r1
    249c:	80e9      	strh	r1, [r5, #6]
    249e:	6881      	ldr	r1, [r0, #8]
    24a0:	2901      	cmp	r1, #1
    24a2:	d101      	bne.n	24a8 <_ZN5YAPFSL7dir_sdiEPNS_9FATFS_DIREt+0x12>
    24a4:	2002      	movs	r0, #2
    24a6:	bd70      	pop	{r4, r5, r6, pc}
    24a8:	6803      	ldr	r3, [r0, #0]
    24aa:	699a      	ldr	r2, [r3, #24]
    24ac:	428a      	cmp	r2, r1
    24ae:	d9f9      	bls.n	24a4 <_ZN5YAPFSL7dir_sdiEPNS_9FATFS_DIREt+0xe>
    24b0:	2900      	cmp	r1, #0
    24b2:	d117      	bne.n	24e4 <_ZN5YAPFSL7dir_sdiEPNS_9FATFS_DIREt+0x4e>
    24b4:	781a      	ldrb	r2, [r3, #0]
    24b6:	2a03      	cmp	r2, #3
    24b8:	d102      	bne.n	24c0 <_ZN5YAPFSL7dir_sdiEPNS_9FATFS_DIREt+0x2a>
    24ba:	6a59      	ldr	r1, [r3, #36]	; 0x24
    24bc:	2900      	cmp	r1, #0
    24be:	d111      	bne.n	24e4 <_ZN5YAPFSL7dir_sdiEPNS_9FATFS_DIREt+0x4e>
    24c0:	2200      	movs	r2, #0
    24c2:	60ea      	str	r2, [r5, #12]
    24c4:	891a      	ldrh	r2, [r3, #8]
    24c6:	42a2      	cmp	r2, r4
    24c8:	d9ec      	bls.n	24a4 <_ZN5YAPFSL7dir_sdiEPNS_9FATFS_DIREt+0xe>
    24ca:	6a5b      	ldr	r3, [r3, #36]	; 0x24
    24cc:	0922      	lsrs	r2, r4, #4
    24ce:	189b      	adds	r3, r3, r2
    24d0:	220f      	movs	r2, #15
    24d2:	612b      	str	r3, [r5, #16]
    24d4:	682b      	ldr	r3, [r5, #0]
    24d6:	4014      	ands	r4, r2
    24d8:	3330      	adds	r3, #48	; 0x30
    24da:	0164      	lsls	r4, r4, #5
    24dc:	191c      	adds	r4, r3, r4
    24de:	616c      	str	r4, [r5, #20]
    24e0:	2000      	movs	r0, #0
    24e2:	e7e0      	b.n	24a6 <_ZN5YAPFSL7dir_sdiEPNS_9FATFS_DIREt+0x10>
    24e4:	789e      	ldrb	r6, [r3, #2]
    24e6:	0136      	lsls	r6, r6, #4
    24e8:	6828      	ldr	r0, [r5, #0]
    24ea:	42b4      	cmp	r4, r6
    24ec:	d30d      	bcc.n	250a <_ZN5YAPFSL7dir_sdiEPNS_9FATFS_DIREt+0x74>
    24ee:	f7ff ff67 	bl	23c0 <_ZN5YAPFS7get_fatEPNS_5FATFSEm>
    24f2:	0001      	movs	r1, r0
    24f4:	1c43      	adds	r3, r0, #1
    24f6:	d00e      	beq.n	2516 <_ZN5YAPFSL7dir_sdiEPNS_9FATFS_DIREt+0x80>
    24f8:	2801      	cmp	r0, #1
    24fa:	d9d3      	bls.n	24a4 <_ZN5YAPFSL7dir_sdiEPNS_9FATFS_DIREt+0xe>
    24fc:	682b      	ldr	r3, [r5, #0]
    24fe:	699b      	ldr	r3, [r3, #24]
    2500:	4283      	cmp	r3, r0
    2502:	d9cf      	bls.n	24a4 <_ZN5YAPFSL7dir_sdiEPNS_9FATFS_DIREt+0xe>
    2504:	1ba4      	subs	r4, r4, r6
    2506:	b2a4      	uxth	r4, r4
    2508:	e7ee      	b.n	24e8 <_ZN5YAPFSL7dir_sdiEPNS_9FATFS_DIREt+0x52>
    250a:	60e9      	str	r1, [r5, #12]
    250c:	f7ff ff4c 	bl	23a8 <_ZN5YAPFS10clust2sectEPNS_5FATFSEm>
    2510:	0923      	lsrs	r3, r4, #4
    2512:	181b      	adds	r3, r3, r0
    2514:	e7dc      	b.n	24d0 <_ZN5YAPFSL7dir_sdiEPNS_9FATFS_DIREt+0x3a>
    2516:	2001      	movs	r0, #1
    2518:	e7c5      	b.n	24a6 <_ZN5YAPFSL7dir_sdiEPNS_9FATFS_DIREt+0x10>

0000251a <_ZN5YAPFS7put_fatEPNS_5FATFSEmm>:
_ZN5YAPFS7put_fatEPNS_5FATFSEmm():
    251a:	b5f7      	push	{r0, r1, r2, r4, r5, r6, r7, lr}
    251c:	0005      	movs	r5, r0
    251e:	000c      	movs	r4, r1
    2520:	0016      	movs	r6, r2
    2522:	2002      	movs	r0, #2
    2524:	2901      	cmp	r1, #1
    2526:	d940      	bls.n	25aa <_ZN5YAPFS7put_fatEPNS_5FATFSEmm+0x90>
    2528:	69ab      	ldr	r3, [r5, #24]
    252a:	428b      	cmp	r3, r1
    252c:	d93d      	bls.n	25aa <_ZN5YAPFS7put_fatEPNS_5FATFSEmm+0x90>
    252e:	782f      	ldrb	r7, [r5, #0]
    2530:	4287      	cmp	r7, r0
    2532:	d044      	beq.n	25be <_ZN5YAPFS7put_fatEPNS_5FATFSEmm+0xa4>
    2534:	2f03      	cmp	r7, #3
    2536:	d054      	beq.n	25e2 <_ZN5YAPFS7put_fatEPNS_5FATFSEmm+0xc8>
    2538:	2f01      	cmp	r7, #1
    253a:	d134      	bne.n	25a6 <_ZN5YAPFS7put_fatEPNS_5FATFSEmm+0x8c>
    253c:	084b      	lsrs	r3, r1, #1
    253e:	185b      	adds	r3, r3, r1
    2540:	0a59      	lsrs	r1, r3, #9
    2542:	9301      	str	r3, [sp, #4]
    2544:	6a2b      	ldr	r3, [r5, #32]
    2546:	0028      	movs	r0, r5
    2548:	18c9      	adds	r1, r1, r3
    254a:	f7ff fd58 	bl	1ffe <_ZN5YAPFSL11move_windowEPNS_5FATFSEm>
    254e:	2800      	cmp	r0, #0
    2550:	d129      	bne.n	25a6 <_ZN5YAPFS7put_fatEPNS_5FATFSEmm+0x8c>
    2552:	9b01      	ldr	r3, [sp, #4]
    2554:	403c      	ands	r4, r7
    2556:	05db      	lsls	r3, r3, #23
    2558:	0ddb      	lsrs	r3, r3, #23
    255a:	18eb      	adds	r3, r5, r3
    255c:	b2f2      	uxtb	r2, r6
    255e:	2c00      	cmp	r4, #0
    2560:	d00a      	beq.n	2578 <_ZN5YAPFS7put_fatEPNS_5FATFSEmm+0x5e>
    2562:	001a      	movs	r2, r3
    2564:	210f      	movs	r1, #15
    2566:	20ff      	movs	r0, #255	; 0xff
    2568:	3230      	adds	r2, #48	; 0x30
    256a:	7812      	ldrb	r2, [r2, #0]
    256c:	0100      	lsls	r0, r0, #4
    256e:	400a      	ands	r2, r1
    2570:	0131      	lsls	r1, r6, #4
    2572:	4001      	ands	r1, r0
    2574:	430a      	orrs	r2, r1
    2576:	b2d2      	uxtb	r2, r2
    2578:	3330      	adds	r3, #48	; 0x30
    257a:	701a      	strb	r2, [r3, #0]
    257c:	2301      	movs	r3, #1
    257e:	9f01      	ldr	r7, [sp, #4]
    2580:	712b      	strb	r3, [r5, #4]
    2582:	3701      	adds	r7, #1
    2584:	6a2b      	ldr	r3, [r5, #32]
    2586:	0a79      	lsrs	r1, r7, #9
    2588:	18c9      	adds	r1, r1, r3
    258a:	0028      	movs	r0, r5
    258c:	f7ff fd37 	bl	1ffe <_ZN5YAPFSL11move_windowEPNS_5FATFSEm>
    2590:	2800      	cmp	r0, #0
    2592:	d108      	bne.n	25a6 <_ZN5YAPFS7put_fatEPNS_5FATFSEmm+0x8c>
    2594:	05ff      	lsls	r7, r7, #23
    2596:	0dff      	lsrs	r7, r7, #23
    2598:	19ef      	adds	r7, r5, r7
    259a:	2c00      	cmp	r4, #0
    259c:	d006      	beq.n	25ac <_ZN5YAPFS7put_fatEPNS_5FATFSEmm+0x92>
    259e:	0936      	lsrs	r6, r6, #4
    25a0:	b2f6      	uxtb	r6, r6
    25a2:	3730      	adds	r7, #48	; 0x30
    25a4:	703e      	strb	r6, [r7, #0]
    25a6:	2301      	movs	r3, #1
    25a8:	712b      	strb	r3, [r5, #4]
    25aa:	bdfe      	pop	{r1, r2, r3, r4, r5, r6, r7, pc}
    25ac:	003b      	movs	r3, r7
    25ae:	220f      	movs	r2, #15
    25b0:	3330      	adds	r3, #48	; 0x30
    25b2:	781b      	ldrb	r3, [r3, #0]
    25b4:	0a36      	lsrs	r6, r6, #8
    25b6:	4393      	bics	r3, r2
    25b8:	4016      	ands	r6, r2
    25ba:	431e      	orrs	r6, r3
    25bc:	e7f1      	b.n	25a2 <_ZN5YAPFS7put_fatEPNS_5FATFSEmm+0x88>
    25be:	6a2b      	ldr	r3, [r5, #32]
    25c0:	0a09      	lsrs	r1, r1, #8
    25c2:	18c9      	adds	r1, r1, r3
    25c4:	0028      	movs	r0, r5
    25c6:	f7ff fd1a 	bl	1ffe <_ZN5YAPFSL11move_windowEPNS_5FATFSEm>
    25ca:	2800      	cmp	r0, #0
    25cc:	d1eb      	bne.n	25a6 <_ZN5YAPFS7put_fatEPNS_5FATFSEmm+0x8c>
    25ce:	23ff      	movs	r3, #255	; 0xff
    25d0:	0064      	lsls	r4, r4, #1
    25d2:	005b      	lsls	r3, r3, #1
    25d4:	401c      	ands	r4, r3
    25d6:	192c      	adds	r4, r5, r4
    25d8:	3430      	adds	r4, #48	; 0x30
    25da:	7026      	strb	r6, [r4, #0]
    25dc:	1236      	asrs	r6, r6, #8
    25de:	7066      	strb	r6, [r4, #1]
    25e0:	e7e1      	b.n	25a6 <_ZN5YAPFS7put_fatEPNS_5FATFSEmm+0x8c>
    25e2:	6a2b      	ldr	r3, [r5, #32]
    25e4:	09c9      	lsrs	r1, r1, #7
    25e6:	18c9      	adds	r1, r1, r3
    25e8:	0028      	movs	r0, r5
    25ea:	f7ff fd08 	bl	1ffe <_ZN5YAPFSL11move_windowEPNS_5FATFSEm>
    25ee:	2800      	cmp	r0, #0
    25f0:	d1d9      	bne.n	25a6 <_ZN5YAPFS7put_fatEPNS_5FATFSEmm+0x8c>
    25f2:	23fe      	movs	r3, #254	; 0xfe
    25f4:	00a4      	lsls	r4, r4, #2
    25f6:	005b      	lsls	r3, r3, #1
    25f8:	401c      	ands	r4, r3
    25fa:	0023      	movs	r3, r4
    25fc:	3330      	adds	r3, #48	; 0x30
    25fe:	18eb      	adds	r3, r5, r3
    2600:	78da      	ldrb	r2, [r3, #3]
    2602:	192c      	adds	r4, r5, r4
    2604:	0912      	lsrs	r2, r2, #4
    2606:	0712      	lsls	r2, r2, #28
    2608:	4316      	orrs	r6, r2
    260a:	1232      	asrs	r2, r6, #8
    260c:	3430      	adds	r4, #48	; 0x30
    260e:	7026      	strb	r6, [r4, #0]
    2610:	705a      	strb	r2, [r3, #1]
    2612:	0c32      	lsrs	r2, r6, #16
    2614:	0e36      	lsrs	r6, r6, #24
    2616:	709a      	strb	r2, [r3, #2]
    2618:	70de      	strb	r6, [r3, #3]
    261a:	e7c4      	b.n	25a6 <_ZN5YAPFS7put_fatEPNS_5FATFSEmm+0x8c>

0000261c <_ZN5YAPFSL12create_chainEPNS_5FATFSEm>:
_ZN5YAPFSL12create_chainEPNS_5FATFSEm():
    261c:	b5f8      	push	{r3, r4, r5, r6, r7, lr}
    261e:	0005      	movs	r5, r0
    2620:	1e0f      	subs	r7, r1, #0
    2622:	d107      	bne.n	2634 <_ZN5YAPFSL12create_chainEPNS_5FATFSEm+0x18>
    2624:	68c6      	ldr	r6, [r0, #12]
    2626:	2e00      	cmp	r6, #0
    2628:	d002      	beq.n	2630 <_ZN5YAPFSL12create_chainEPNS_5FATFSEm+0x14>
    262a:	6983      	ldr	r3, [r0, #24]
    262c:	429e      	cmp	r6, r3
    262e:	d30d      	bcc.n	264c <_ZN5YAPFSL12create_chainEPNS_5FATFSEm+0x30>
    2630:	2601      	movs	r6, #1
    2632:	e00b      	b.n	264c <_ZN5YAPFSL12create_chainEPNS_5FATFSEm+0x30>
    2634:	f7ff fec4 	bl	23c0 <_ZN5YAPFS7get_fatEPNS_5FATFSEm>
    2638:	0004      	movs	r4, r0
    263a:	2801      	cmp	r0, #1
    263c:	d802      	bhi.n	2644 <_ZN5YAPFSL12create_chainEPNS_5FATFSEm+0x28>
    263e:	2401      	movs	r4, #1
    2640:	0020      	movs	r0, r4
    2642:	bdf8      	pop	{r3, r4, r5, r6, r7, pc}
    2644:	69ab      	ldr	r3, [r5, #24]
    2646:	003e      	movs	r6, r7
    2648:	4283      	cmp	r3, r0
    264a:	d8f9      	bhi.n	2640 <_ZN5YAPFSL12create_chainEPNS_5FATFSEm+0x24>
    264c:	0034      	movs	r4, r6
    264e:	69ab      	ldr	r3, [r5, #24]
    2650:	3401      	adds	r4, #1
    2652:	42a3      	cmp	r3, r4
    2654:	d804      	bhi.n	2660 <_ZN5YAPFSL12create_chainEPNS_5FATFSEm+0x44>
    2656:	2e01      	cmp	r6, #1
    2658:	d801      	bhi.n	265e <_ZN5YAPFSL12create_chainEPNS_5FATFSEm+0x42>
    265a:	2400      	movs	r4, #0
    265c:	e7f0      	b.n	2640 <_ZN5YAPFSL12create_chainEPNS_5FATFSEm+0x24>
    265e:	2402      	movs	r4, #2
    2660:	0021      	movs	r1, r4
    2662:	0028      	movs	r0, r5
    2664:	f7ff feac 	bl	23c0 <_ZN5YAPFS7get_fatEPNS_5FATFSEm>
    2668:	2800      	cmp	r0, #0
    266a:	d006      	beq.n	267a <_ZN5YAPFSL12create_chainEPNS_5FATFSEm+0x5e>
    266c:	1c43      	adds	r3, r0, #1
    266e:	d01f      	beq.n	26b0 <_ZN5YAPFSL12create_chainEPNS_5FATFSEm+0x94>
    2670:	2801      	cmp	r0, #1
    2672:	d0e4      	beq.n	263e <_ZN5YAPFSL12create_chainEPNS_5FATFSEm+0x22>
    2674:	42b4      	cmp	r4, r6
    2676:	d1ea      	bne.n	264e <_ZN5YAPFSL12create_chainEPNS_5FATFSEm+0x32>
    2678:	e7ef      	b.n	265a <_ZN5YAPFSL12create_chainEPNS_5FATFSEm+0x3e>
    267a:	4a0f      	ldr	r2, [pc, #60]	; (26b8 <_ZN5YAPFSL12create_chainEPNS_5FATFSEm+0x9c>)
    267c:	0021      	movs	r1, r4
    267e:	0028      	movs	r0, r5
    2680:	f7ff ff4b 	bl	251a <_ZN5YAPFS7put_fatEPNS_5FATFSEmm>
    2684:	2800      	cmp	r0, #0
    2686:	d111      	bne.n	26ac <_ZN5YAPFSL12create_chainEPNS_5FATFSEm+0x90>
    2688:	2f00      	cmp	r7, #0
    268a:	d108      	bne.n	269e <_ZN5YAPFSL12create_chainEPNS_5FATFSEm+0x82>
    268c:	692b      	ldr	r3, [r5, #16]
    268e:	60ec      	str	r4, [r5, #12]
    2690:	1c5a      	adds	r2, r3, #1
    2692:	d0d5      	beq.n	2640 <_ZN5YAPFSL12create_chainEPNS_5FATFSEm+0x24>
    2694:	3b01      	subs	r3, #1
    2696:	612b      	str	r3, [r5, #16]
    2698:	2301      	movs	r3, #1
    269a:	716b      	strb	r3, [r5, #5]
    269c:	e7d0      	b.n	2640 <_ZN5YAPFSL12create_chainEPNS_5FATFSEm+0x24>
    269e:	0022      	movs	r2, r4
    26a0:	0039      	movs	r1, r7
    26a2:	0028      	movs	r0, r5
    26a4:	f7ff ff39 	bl	251a <_ZN5YAPFS7put_fatEPNS_5FATFSEmm>
    26a8:	2800      	cmp	r0, #0
    26aa:	d0ef      	beq.n	268c <_ZN5YAPFSL12create_chainEPNS_5FATFSEm+0x70>
    26ac:	2801      	cmp	r0, #1
    26ae:	d1c6      	bne.n	263e <_ZN5YAPFSL12create_chainEPNS_5FATFSEm+0x22>
    26b0:	2401      	movs	r4, #1
    26b2:	4264      	negs	r4, r4
    26b4:	e7c4      	b.n	2640 <_ZN5YAPFSL12create_chainEPNS_5FATFSEm+0x24>
    26b6:	46c0      	nop			; (mov r8, r8)
    26b8:	ffff 0fff 			; <UNDEFINED> instruction: 0xffff0fff

000026bc <_ZN5YAPFSL8dir_nextEPNS_9FATFS_DIREi>:
_ZN5YAPFSL8dir_nextEPNS_9FATFS_DIREi():
    26bc:	b5f7      	push	{r0, r1, r2, r4, r5, r6, r7, lr}
    26be:	88c6      	ldrh	r6, [r0, #6]
    26c0:	0004      	movs	r4, r0
    26c2:	3601      	adds	r6, #1
    26c4:	b2b6      	uxth	r6, r6
    26c6:	000f      	movs	r7, r1
    26c8:	2e00      	cmp	r6, #0
    26ca:	d101      	bne.n	26d0 <_ZN5YAPFSL8dir_nextEPNS_9FATFS_DIREi+0x14>
    26cc:	2004      	movs	r0, #4
    26ce:	bdfe      	pop	{r1, r2, r3, r4, r5, r6, r7, pc}
    26d0:	6903      	ldr	r3, [r0, #16]
    26d2:	2b00      	cmp	r3, #0
    26d4:	d0fa      	beq.n	26cc <_ZN5YAPFSL8dir_nextEPNS_9FATFS_DIREi+0x10>
    26d6:	220f      	movs	r2, #15
    26d8:	4032      	ands	r2, r6
    26da:	9200      	str	r2, [sp, #0]
    26dc:	d108      	bne.n	26f0 <_ZN5YAPFSL8dir_nextEPNS_9FATFS_DIREi+0x34>
    26de:	68e1      	ldr	r1, [r4, #12]
    26e0:	3301      	adds	r3, #1
    26e2:	6800      	ldr	r0, [r0, #0]
    26e4:	6123      	str	r3, [r4, #16]
    26e6:	2900      	cmp	r1, #0
    26e8:	d10b      	bne.n	2702 <_ZN5YAPFSL8dir_nextEPNS_9FATFS_DIREi+0x46>
    26ea:	8903      	ldrh	r3, [r0, #8]
    26ec:	42b3      	cmp	r3, r6
    26ee:	d9ed      	bls.n	26cc <_ZN5YAPFSL8dir_nextEPNS_9FATFS_DIREi+0x10>
    26f0:	6823      	ldr	r3, [r4, #0]
    26f2:	9a00      	ldr	r2, [sp, #0]
    26f4:	3330      	adds	r3, #48	; 0x30
    26f6:	0152      	lsls	r2, r2, #5
    26f8:	189b      	adds	r3, r3, r2
    26fa:	80e6      	strh	r6, [r4, #6]
    26fc:	6163      	str	r3, [r4, #20]
    26fe:	2000      	movs	r0, #0
    2700:	e7e5      	b.n	26ce <_ZN5YAPFSL8dir_nextEPNS_9FATFS_DIREi+0x12>
    2702:	7883      	ldrb	r3, [r0, #2]
    2704:	0932      	lsrs	r2, r6, #4
    2706:	3b01      	subs	r3, #1
    2708:	421a      	tst	r2, r3
    270a:	d1f1      	bne.n	26f0 <_ZN5YAPFSL8dir_nextEPNS_9FATFS_DIREi+0x34>
    270c:	f7ff fe58 	bl	23c0 <_ZN5YAPFS7get_fatEPNS_5FATFSEm>
    2710:	0005      	movs	r5, r0
    2712:	2801      	cmp	r0, #1
    2714:	d801      	bhi.n	271a <_ZN5YAPFSL8dir_nextEPNS_9FATFS_DIREi+0x5e>
    2716:	2002      	movs	r0, #2
    2718:	e7d9      	b.n	26ce <_ZN5YAPFSL8dir_nextEPNS_9FATFS_DIREi+0x12>
    271a:	1c43      	adds	r3, r0, #1
    271c:	d101      	bne.n	2722 <_ZN5YAPFSL8dir_nextEPNS_9FATFS_DIREi+0x66>
    271e:	2001      	movs	r0, #1
    2720:	e7d5      	b.n	26ce <_ZN5YAPFSL8dir_nextEPNS_9FATFS_DIREi+0x12>
    2722:	6820      	ldr	r0, [r4, #0]
    2724:	6983      	ldr	r3, [r0, #24]
    2726:	42ab      	cmp	r3, r5
    2728:	d837      	bhi.n	279a <_ZN5YAPFSL8dir_nextEPNS_9FATFS_DIREi+0xde>
    272a:	2f00      	cmp	r7, #0
    272c:	d0ce      	beq.n	26cc <_ZN5YAPFSL8dir_nextEPNS_9FATFS_DIREi+0x10>
    272e:	68e1      	ldr	r1, [r4, #12]
    2730:	f7ff ff74 	bl	261c <_ZN5YAPFSL12create_chainEPNS_5FATFSEm>
    2734:	0005      	movs	r5, r0
    2736:	2007      	movs	r0, #7
    2738:	2d00      	cmp	r5, #0
    273a:	d0c8      	beq.n	26ce <_ZN5YAPFSL8dir_nextEPNS_9FATFS_DIREi+0x12>
    273c:	2d01      	cmp	r5, #1
    273e:	d0ea      	beq.n	2716 <_ZN5YAPFSL8dir_nextEPNS_9FATFS_DIREi+0x5a>
    2740:	1c6b      	adds	r3, r5, #1
    2742:	d0ec      	beq.n	271e <_ZN5YAPFSL8dir_nextEPNS_9FATFS_DIREi+0x62>
    2744:	2100      	movs	r1, #0
    2746:	6820      	ldr	r0, [r4, #0]
    2748:	f7ff fc59 	bl	1ffe <_ZN5YAPFSL11move_windowEPNS_5FATFSEm>
    274c:	1e07      	subs	r7, r0, #0
    274e:	d1e6      	bne.n	271e <_ZN5YAPFSL8dir_nextEPNS_9FATFS_DIREi+0x62>
    2750:	2280      	movs	r2, #128	; 0x80
    2752:	6820      	ldr	r0, [r4, #0]
    2754:	0092      	lsls	r2, r2, #2
    2756:	3030      	adds	r0, #48	; 0x30
    2758:	0039      	movs	r1, r7
    275a:	f7ff fe1e 	bl	239a <_ZN6MemOps3setEPvhj>
    275e:	6823      	ldr	r3, [r4, #0]
    2760:	0029      	movs	r1, r5
    2762:	0018      	movs	r0, r3
    2764:	9301      	str	r3, [sp, #4]
    2766:	f7ff fe1f 	bl	23a8 <_ZN5YAPFS10clust2sectEPNS_5FATFSEm>
    276a:	9b01      	ldr	r3, [sp, #4]
    276c:	62d8      	str	r0, [r3, #44]	; 0x2c
    276e:	6823      	ldr	r3, [r4, #0]
    2770:	789a      	ldrb	r2, [r3, #2]
    2772:	42ba      	cmp	r2, r7
    2774:	d90e      	bls.n	2794 <_ZN5YAPFSL8dir_nextEPNS_9FATFS_DIREi+0xd8>
    2776:	2201      	movs	r2, #1
    2778:	711a      	strb	r2, [r3, #4]
    277a:	2100      	movs	r1, #0
    277c:	6820      	ldr	r0, [r4, #0]
    277e:	f7ff fc3e 	bl	1ffe <_ZN5YAPFSL11move_windowEPNS_5FATFSEm>
    2782:	2800      	cmp	r0, #0
    2784:	d1cb      	bne.n	271e <_ZN5YAPFSL8dir_nextEPNS_9FATFS_DIREi+0x62>
    2786:	6822      	ldr	r2, [r4, #0]
    2788:	3701      	adds	r7, #1
    278a:	6ad3      	ldr	r3, [r2, #44]	; 0x2c
    278c:	b2ff      	uxtb	r7, r7
    278e:	3301      	adds	r3, #1
    2790:	62d3      	str	r3, [r2, #44]	; 0x2c
    2792:	e7ec      	b.n	276e <_ZN5YAPFSL8dir_nextEPNS_9FATFS_DIREi+0xb2>
    2794:	6ada      	ldr	r2, [r3, #44]	; 0x2c
    2796:	1bd7      	subs	r7, r2, r7
    2798:	62df      	str	r7, [r3, #44]	; 0x2c
    279a:	60e5      	str	r5, [r4, #12]
    279c:	0029      	movs	r1, r5
    279e:	6820      	ldr	r0, [r4, #0]
    27a0:	f7ff fe02 	bl	23a8 <_ZN5YAPFS10clust2sectEPNS_5FATFSEm>
    27a4:	6120      	str	r0, [r4, #16]
    27a6:	e7a3      	b.n	26f0 <_ZN5YAPFSL8dir_nextEPNS_9FATFS_DIREi+0x34>

000027a8 <_ZN5YAPFSL8dir_findEPNS_9FATFS_DIRE.part.5>:
_ZN5YAPFSL8dir_findEPNS_9FATFS_DIRE.part.5():
    27a8:	23ff      	movs	r3, #255	; 0xff
    27aa:	b5f0      	push	{r4, r5, r6, r7, lr}
    27ac:	0006      	movs	r6, r0
    27ae:	001c      	movs	r4, r3
    27b0:	001f      	movs	r7, r3
    27b2:	b087      	sub	sp, #28
    27b4:	9303      	str	r3, [sp, #12]
    27b6:	6931      	ldr	r1, [r6, #16]
    27b8:	6830      	ldr	r0, [r6, #0]
    27ba:	f7ff fc20 	bl	1ffe <_ZN5YAPFSL11move_windowEPNS_5FATFSEm>
    27be:	9000      	str	r0, [sp, #0]
    27c0:	2800      	cmp	r0, #0
    27c2:	d161      	bne.n	2888 <_ZN5YAPFSL8dir_findEPNS_9FATFS_DIRE.part.5+0xe0>
    27c4:	6975      	ldr	r5, [r6, #20]
    27c6:	782b      	ldrb	r3, [r5, #0]
    27c8:	2b00      	cmp	r3, #0
    27ca:	d100      	bne.n	27ce <_ZN5YAPFSL8dir_findEPNS_9FATFS_DIRE.part.5+0x26>
    27cc:	e083      	b.n	28d6 <_ZN5YAPFSL8dir_findEPNS_9FATFS_DIRE.part.5+0x12e>
    27ce:	223f      	movs	r2, #63	; 0x3f
    27d0:	7ae9      	ldrb	r1, [r5, #11]
    27d2:	400a      	ands	r2, r1
    27d4:	2be5      	cmp	r3, #229	; 0xe5
    27d6:	d100      	bne.n	27da <_ZN5YAPFSL8dir_findEPNS_9FATFS_DIRE.part.5+0x32>
    27d8:	e06f      	b.n	28ba <_ZN5YAPFSL8dir_findEPNS_9FATFS_DIRE.part.5+0x112>
    27da:	0709      	lsls	r1, r1, #28
    27dc:	d557      	bpl.n	288e <_ZN5YAPFSL8dir_findEPNS_9FATFS_DIRE.part.5+0xe6>
    27de:	2a0f      	cmp	r2, #15
    27e0:	d000      	beq.n	27e4 <_ZN5YAPFSL8dir_findEPNS_9FATFS_DIRE.part.5+0x3c>
    27e2:	e06a      	b.n	28ba <_ZN5YAPFSL8dir_findEPNS_9FATFS_DIRE.part.5+0x112>
    27e4:	69f2      	ldr	r2, [r6, #28]
    27e6:	9202      	str	r2, [sp, #8]
    27e8:	2a00      	cmp	r2, #0
    27ea:	d046      	beq.n	287a <_ZN5YAPFSL8dir_findEPNS_9FATFS_DIRE.part.5+0xd2>
    27ec:	2240      	movs	r2, #64	; 0x40
    27ee:	4213      	tst	r3, r2
    27f0:	d061      	beq.n	28b6 <_ZN5YAPFSL8dir_findEPNS_9FATFS_DIRE.part.5+0x10e>
    27f2:	4393      	bics	r3, r2
    27f4:	7b69      	ldrb	r1, [r5, #13]
    27f6:	001c      	movs	r4, r3
    27f8:	88f3      	ldrh	r3, [r6, #6]
    27fa:	9103      	str	r1, [sp, #12]
    27fc:	8433      	strh	r3, [r6, #32]
    27fe:	7b6b      	ldrb	r3, [r5, #13]
    2800:	9a03      	ldr	r2, [sp, #12]
    2802:	4293      	cmp	r3, r2
    2804:	d159      	bne.n	28ba <_ZN5YAPFSL8dir_findEPNS_9FATFS_DIRE.part.5+0x112>
    2806:	2240      	movs	r2, #64	; 0x40
    2808:	782b      	ldrb	r3, [r5, #0]
    280a:	4393      	bics	r3, r2
    280c:	3b01      	subs	r3, #1
    280e:	3a33      	subs	r2, #51	; 0x33
    2810:	435a      	muls	r2, r3
    2812:	9200      	str	r2, [sp, #0]
    2814:	2200      	movs	r2, #0
    2816:	2301      	movs	r3, #1
    2818:	9201      	str	r2, [sp, #4]
    281a:	4a30      	ldr	r2, [pc, #192]	; (28dc <_ZN5YAPFSL8dir_findEPNS_9FATFS_DIRE.part.5+0x134>)
    281c:	9901      	ldr	r1, [sp, #4]
    281e:	5c89      	ldrb	r1, [r1, r2]
    2820:	186a      	adds	r2, r5, r1
    2822:	7852      	ldrb	r2, [r2, #1]
    2824:	5c68      	ldrb	r0, [r5, r1]
    2826:	0212      	lsls	r2, r2, #8
    2828:	4310      	orrs	r0, r2
    282a:	2b00      	cmp	r3, #0
    282c:	d047      	beq.n	28be <_ZN5YAPFSL8dir_findEPNS_9FATFS_DIRE.part.5+0x116>
    282e:	f7fe ff99 	bl	1764 <_ZN5YAPFS11ff_wtoupperEt>
    2832:	9b00      	ldr	r3, [sp, #0]
    2834:	9005      	str	r0, [sp, #20]
    2836:	2b7d      	cmp	r3, #125	; 0x7d
    2838:	d83f      	bhi.n	28ba <_ZN5YAPFSL8dir_findEPNS_9FATFS_DIRE.part.5+0x112>
    283a:	3301      	adds	r3, #1
    283c:	9304      	str	r3, [sp, #16]
    283e:	9b00      	ldr	r3, [sp, #0]
    2840:	9a02      	ldr	r2, [sp, #8]
    2842:	005b      	lsls	r3, r3, #1
    2844:	5a98      	ldrh	r0, [r3, r2]
    2846:	f7fe ff8d 	bl	1764 <_ZN5YAPFS11ff_wtoupperEt>
    284a:	9a05      	ldr	r2, [sp, #20]
    284c:	0003      	movs	r3, r0
    284e:	4282      	cmp	r2, r0
    2850:	d133      	bne.n	28ba <_ZN5YAPFSL8dir_findEPNS_9FATFS_DIRE.part.5+0x112>
    2852:	9a04      	ldr	r2, [sp, #16]
    2854:	9200      	str	r2, [sp, #0]
    2856:	9a01      	ldr	r2, [sp, #4]
    2858:	3201      	adds	r2, #1
    285a:	9201      	str	r2, [sp, #4]
    285c:	2a0d      	cmp	r2, #13
    285e:	d1dc      	bne.n	281a <_ZN5YAPFSL8dir_findEPNS_9FATFS_DIRE.part.5+0x72>
    2860:	782a      	ldrb	r2, [r5, #0]
    2862:	0652      	lsls	r2, r2, #25
    2864:	d507      	bpl.n	2876 <_ZN5YAPFSL8dir_findEPNS_9FATFS_DIRE.part.5+0xce>
    2866:	2b00      	cmp	r3, #0
    2868:	d005      	beq.n	2876 <_ZN5YAPFSL8dir_findEPNS_9FATFS_DIRE.part.5+0xce>
    286a:	9b00      	ldr	r3, [sp, #0]
    286c:	9a02      	ldr	r2, [sp, #8]
    286e:	005b      	lsls	r3, r3, #1
    2870:	5a9b      	ldrh	r3, [r3, r2]
    2872:	2b00      	cmp	r3, #0
    2874:	d121      	bne.n	28ba <_ZN5YAPFSL8dir_findEPNS_9FATFS_DIRE.part.5+0x112>
    2876:	3c01      	subs	r4, #1
    2878:	b2e4      	uxtb	r4, r4
    287a:	2100      	movs	r1, #0
    287c:	0030      	movs	r0, r6
    287e:	f7ff ff1d 	bl	26bc <_ZN5YAPFSL8dir_nextEPNS_9FATFS_DIREi>
    2882:	9000      	str	r0, [sp, #0]
    2884:	2800      	cmp	r0, #0
    2886:	d096      	beq.n	27b6 <_ZN5YAPFSL8dir_findEPNS_9FATFS_DIRE.part.5+0xe>
    2888:	9800      	ldr	r0, [sp, #0]
    288a:	b007      	add	sp, #28
    288c:	bdf0      	pop	{r4, r5, r6, r7, pc}
    288e:	2a0f      	cmp	r2, #15
    2890:	d0a8      	beq.n	27e4 <_ZN5YAPFSL8dir_findEPNS_9FATFS_DIRE.part.5+0x3c>
    2892:	2c00      	cmp	r4, #0
    2894:	d105      	bne.n	28a2 <_ZN5YAPFSL8dir_findEPNS_9FATFS_DIRE.part.5+0xfa>
    2896:	0028      	movs	r0, r5
    2898:	f7ff fb7e 	bl	1f98 <_ZN5YAPFSL7sum_sfnEPKh>
    289c:	9b03      	ldr	r3, [sp, #12]
    289e:	4298      	cmp	r0, r3
    28a0:	d0f2      	beq.n	2888 <_ZN5YAPFSL8dir_findEPNS_9FATFS_DIRE.part.5+0xe0>
    28a2:	2301      	movs	r3, #1
    28a4:	2101      	movs	r1, #1
    28a6:	425b      	negs	r3, r3
    28a8:	69b2      	ldr	r2, [r6, #24]
    28aa:	8433      	strh	r3, [r6, #32]
    28ac:	7ad3      	ldrb	r3, [r2, #11]
    28ae:	400b      	ands	r3, r1
    28b0:	d103      	bne.n	28ba <_ZN5YAPFSL8dir_findEPNS_9FATFS_DIRE.part.5+0x112>
    28b2:	3a01      	subs	r2, #1
    28b4:	e009      	b.n	28ca <_ZN5YAPFSL8dir_findEPNS_9FATFS_DIRE.part.5+0x122>
    28b6:	42a3      	cmp	r3, r4
    28b8:	d0a1      	beq.n	27fe <_ZN5YAPFSL8dir_findEPNS_9FATFS_DIRE.part.5+0x56>
    28ba:	003c      	movs	r4, r7
    28bc:	e7dd      	b.n	287a <_ZN5YAPFSL8dir_findEPNS_9FATFS_DIRE.part.5+0xd2>
    28be:	4a08      	ldr	r2, [pc, #32]	; (28e0 <_ZN5YAPFSL8dir_findEPNS_9FATFS_DIRE.part.5+0x138>)
    28c0:	4290      	cmp	r0, r2
    28c2:	d0c8      	beq.n	2856 <_ZN5YAPFSL8dir_findEPNS_9FATFS_DIRE.part.5+0xae>
    28c4:	e7f9      	b.n	28ba <_ZN5YAPFSL8dir_findEPNS_9FATFS_DIRE.part.5+0x112>
    28c6:	2b0b      	cmp	r3, #11
    28c8:	d0de      	beq.n	2888 <_ZN5YAPFSL8dir_findEPNS_9FATFS_DIRE.part.5+0xe0>
    28ca:	5ce9      	ldrb	r1, [r5, r3]
    28cc:	3301      	adds	r3, #1
    28ce:	5cd0      	ldrb	r0, [r2, r3]
    28d0:	4288      	cmp	r0, r1
    28d2:	d0f8      	beq.n	28c6 <_ZN5YAPFSL8dir_findEPNS_9FATFS_DIRE.part.5+0x11e>
    28d4:	e7f1      	b.n	28ba <_ZN5YAPFSL8dir_findEPNS_9FATFS_DIRE.part.5+0x112>
    28d6:	2304      	movs	r3, #4
    28d8:	9300      	str	r3, [sp, #0]
    28da:	e7d5      	b.n	2888 <_ZN5YAPFSL8dir_findEPNS_9FATFS_DIRE.part.5+0xe0>
    28dc:	0214      	lsls	r4, r2, #8
    28de:	0001      	movs	r1, r0
    28e0:	ffff 0000 	vaddl.u<illegal width 64>	q8, d15, d0

000028e4 <_ZN5YAPFSL11follow_pathEPNS_9FATFS_DIREPKc>:
_ZN5YAPFSL11follow_pathEPNS_9FATFS_DIREPKc():
    28e4:	b5f0      	push	{r4, r5, r6, r7, lr}
    28e6:	780b      	ldrb	r3, [r1, #0]
    28e8:	b087      	sub	sp, #28
    28ea:	0005      	movs	r5, r0
    28ec:	9101      	str	r1, [sp, #4]
    28ee:	2b2f      	cmp	r3, #47	; 0x2f
    28f0:	d001      	beq.n	28f6 <_ZN5YAPFSL11follow_pathEPNS_9FATFS_DIREPKc+0x12>
    28f2:	2b5c      	cmp	r3, #92	; 0x5c
    28f4:	d102      	bne.n	28fc <_ZN5YAPFSL11follow_pathEPNS_9FATFS_DIREPKc+0x18>
    28f6:	9b01      	ldr	r3, [sp, #4]
    28f8:	3301      	adds	r3, #1
    28fa:	9301      	str	r3, [sp, #4]
    28fc:	2400      	movs	r4, #0
    28fe:	9b01      	ldr	r3, [sp, #4]
    2900:	60ac      	str	r4, [r5, #8]
    2902:	781b      	ldrb	r3, [r3, #0]
    2904:	2b1f      	cmp	r3, #31
    2906:	d900      	bls.n	290a <_ZN5YAPFSL11follow_pathEPNS_9FATFS_DIREPKc+0x26>
    2908:	e0f7      	b.n	2afa <_ZN5YAPFSL11follow_pathEPNS_9FATFS_DIREPKc+0x216>
    290a:	0021      	movs	r1, r4
    290c:	0028      	movs	r0, r5
    290e:	f7ff fdc2 	bl	2496 <_ZN5YAPFSL7dir_sdiEPNS_9FATFS_DIREt>
    2912:	616c      	str	r4, [r5, #20]
    2914:	b007      	add	sp, #28
    2916:	bdf0      	pop	{r4, r5, r6, r7, pc}
    2918:	2600      	movs	r6, #0
    291a:	69eb      	ldr	r3, [r5, #28]
    291c:	9305      	str	r3, [sp, #20]
    291e:	9b01      	ldr	r3, [sp, #4]
    2920:	1c74      	adds	r4, r6, #1
    2922:	5d98      	ldrb	r0, [r3, r6]
    2924:	281f      	cmp	r0, #31
    2926:	d91c      	bls.n	2962 <_ZN5YAPFSL11follow_pathEPNS_9FATFS_DIREPKc+0x7e>
    2928:	282f      	cmp	r0, #47	; 0x2f
    292a:	d01a      	beq.n	2962 <_ZN5YAPFSL11follow_pathEPNS_9FATFS_DIREPKc+0x7e>
    292c:	285c      	cmp	r0, #92	; 0x5c
    292e:	d018      	beq.n	2962 <_ZN5YAPFSL11follow_pathEPNS_9FATFS_DIREPKc+0x7e>
    2930:	2e7e      	cmp	r6, #126	; 0x7e
    2932:	d100      	bne.n	2936 <_ZN5YAPFSL11follow_pathEPNS_9FATFS_DIREPKc+0x52>
    2934:	e0ec      	b.n	2b10 <_ZN5YAPFSL11follow_pathEPNS_9FATFS_DIREPKc+0x22c>
    2936:	2101      	movs	r1, #1
    2938:	f7fe fef8 	bl	172c <_ZN5YAPFS10ff_convertEtj>
    293c:	2800      	cmp	r0, #0
    293e:	d100      	bne.n	2942 <_ZN5YAPFSL11follow_pathEPNS_9FATFS_DIREPKc+0x5e>
    2940:	e0e6      	b.n	2b10 <_ZN5YAPFSL11follow_pathEPNS_9FATFS_DIREPKc+0x22c>
    2942:	287f      	cmp	r0, #127	; 0x7f
    2944:	d808      	bhi.n	2958 <_ZN5YAPFSL11follow_pathEPNS_9FATFS_DIREPKc+0x74>
    2946:	4b7e      	ldr	r3, [pc, #504]	; (2b40 <_ZN5YAPFSL11follow_pathEPNS_9FATFS_DIREPKc+0x25c>)
    2948:	781a      	ldrb	r2, [r3, #0]
    294a:	2a00      	cmp	r2, #0
    294c:	d004      	beq.n	2958 <_ZN5YAPFSL11follow_pathEPNS_9FATFS_DIREPKc+0x74>
    294e:	4282      	cmp	r2, r0
    2950:	d100      	bne.n	2954 <_ZN5YAPFSL11follow_pathEPNS_9FATFS_DIREPKc+0x70>
    2952:	e0dd      	b.n	2b10 <_ZN5YAPFSL11follow_pathEPNS_9FATFS_DIREPKc+0x22c>
    2954:	3301      	adds	r3, #1
    2956:	e7f7      	b.n	2948 <_ZN5YAPFSL11follow_pathEPNS_9FATFS_DIREPKc+0x64>
    2958:	9b05      	ldr	r3, [sp, #20]
    295a:	0076      	lsls	r6, r6, #1
    295c:	5398      	strh	r0, [r3, r6]
    295e:	0026      	movs	r6, r4
    2960:	e7dd      	b.n	291e <_ZN5YAPFSL11follow_pathEPNS_9FATFS_DIREPKc+0x3a>
    2962:	9b01      	ldr	r3, [sp, #4]
    2964:	191b      	adds	r3, r3, r4
    2966:	9301      	str	r3, [sp, #4]
    2968:	2404      	movs	r4, #4
    296a:	281f      	cmp	r0, #31
    296c:	d900      	bls.n	2970 <_ZN5YAPFSL11follow_pathEPNS_9FATFS_DIREPKc+0x8c>
    296e:	2400      	movs	r4, #0
    2970:	9b05      	ldr	r3, [sp, #20]
    2972:	1e9f      	subs	r7, r3, #2
    2974:	2e00      	cmp	r6, #0
    2976:	d100      	bne.n	297a <_ZN5YAPFSL11follow_pathEPNS_9FATFS_DIREPKc+0x96>
    2978:	e0ca      	b.n	2b10 <_ZN5YAPFSL11follow_pathEPNS_9FATFS_DIREPKc+0x22c>
    297a:	0073      	lsls	r3, r6, #1
    297c:	5afa      	ldrh	r2, [r7, r3]
    297e:	2a20      	cmp	r2, #32
    2980:	d002      	beq.n	2988 <_ZN5YAPFSL11follow_pathEPNS_9FATFS_DIREPKc+0xa4>
    2982:	2a2e      	cmp	r2, #46	; 0x2e
    2984:	d000      	beq.n	2988 <_ZN5YAPFSL11follow_pathEPNS_9FATFS_DIREPKc+0xa4>
    2986:	e0c7      	b.n	2b18 <_ZN5YAPFSL11follow_pathEPNS_9FATFS_DIREPKc+0x234>
    2988:	3e01      	subs	r6, #1
    298a:	e7f3      	b.n	2974 <_ZN5YAPFSL11follow_pathEPNS_9FATFS_DIREPKc+0x90>
    298c:	2b00      	cmp	r3, #0
    298e:	d001      	beq.n	2994 <_ZN5YAPFSL11follow_pathEPNS_9FATFS_DIREPKc+0xb0>
    2990:	2203      	movs	r2, #3
    2992:	4314      	orrs	r4, r2
    2994:	0072      	lsls	r2, r6, #1
    2996:	5aba      	ldrh	r2, [r7, r2]
    2998:	2a2e      	cmp	r2, #46	; 0x2e
    299a:	d002      	beq.n	29a2 <_ZN5YAPFSL11follow_pathEPNS_9FATFS_DIREPKc+0xbe>
    299c:	3e01      	subs	r6, #1
    299e:	2e00      	cmp	r6, #0
    29a0:	d1f8      	bne.n	2994 <_ZN5YAPFSL11follow_pathEPNS_9FATFS_DIREPKc+0xb0>
    29a2:	2208      	movs	r2, #8
    29a4:	9202      	str	r2, [sp, #8]
    29a6:	2200      	movs	r2, #0
    29a8:	0017      	movs	r7, r2
    29aa:	9204      	str	r2, [sp, #16]
    29ac:	1c5a      	adds	r2, r3, #1
    29ae:	9203      	str	r2, [sp, #12]
    29b0:	9a05      	ldr	r2, [sp, #20]
    29b2:	005b      	lsls	r3, r3, #1
    29b4:	5a98      	ldrh	r0, [r3, r2]
    29b6:	2800      	cmp	r0, #0
    29b8:	d01c      	beq.n	29f4 <_ZN5YAPFSL11follow_pathEPNS_9FATFS_DIREPKc+0x110>
    29ba:	2820      	cmp	r0, #32
    29bc:	d004      	beq.n	29c8 <_ZN5YAPFSL11follow_pathEPNS_9FATFS_DIREPKc+0xe4>
    29be:	282e      	cmp	r0, #46	; 0x2e
    29c0:	d106      	bne.n	29d0 <_ZN5YAPFSL11follow_pathEPNS_9FATFS_DIREPKc+0xec>
    29c2:	9b03      	ldr	r3, [sp, #12]
    29c4:	42b3      	cmp	r3, r6
    29c6:	d00a      	beq.n	29de <_ZN5YAPFSL11follow_pathEPNS_9FATFS_DIREPKc+0xfa>
    29c8:	2303      	movs	r3, #3
    29ca:	431c      	orrs	r4, r3
    29cc:	9b03      	ldr	r3, [sp, #12]
    29ce:	e7ed      	b.n	29ac <_ZN5YAPFSL11follow_pathEPNS_9FATFS_DIREPKc+0xc8>
    29d0:	9b04      	ldr	r3, [sp, #16]
    29d2:	9a02      	ldr	r2, [sp, #8]
    29d4:	4293      	cmp	r3, r2
    29d6:	d206      	bcs.n	29e6 <_ZN5YAPFSL11follow_pathEPNS_9FATFS_DIREPKc+0x102>
    29d8:	9b03      	ldr	r3, [sp, #12]
    29da:	42b3      	cmp	r3, r6
    29dc:	d146      	bne.n	2a6c <_ZN5YAPFSL11follow_pathEPNS_9FATFS_DIREPKc+0x188>
    29de:	9b02      	ldr	r3, [sp, #8]
    29e0:	2b0b      	cmp	r3, #11
    29e2:	d13b      	bne.n	2a5c <_ZN5YAPFSL11follow_pathEPNS_9FATFS_DIREPKc+0x178>
    29e4:	e002      	b.n	29ec <_ZN5YAPFSL11follow_pathEPNS_9FATFS_DIREPKc+0x108>
    29e6:	9b02      	ldr	r3, [sp, #8]
    29e8:	2b0b      	cmp	r3, #11
    29ea:	d12f      	bne.n	2a4c <_ZN5YAPFSL11follow_pathEPNS_9FATFS_DIREPKc+0x168>
    29ec:	2303      	movs	r3, #3
    29ee:	431c      	orrs	r4, r3
    29f0:	3308      	adds	r3, #8
    29f2:	9302      	str	r3, [sp, #8]
    29f4:	69ab      	ldr	r3, [r5, #24]
    29f6:	781a      	ldrb	r2, [r3, #0]
    29f8:	2ae5      	cmp	r2, #229	; 0xe5
    29fa:	d101      	bne.n	2a00 <_ZN5YAPFSL11follow_pathEPNS_9FATFS_DIREPKc+0x11c>
    29fc:	3ae0      	subs	r2, #224	; 0xe0
    29fe:	701a      	strb	r2, [r3, #0]
    2a00:	9b02      	ldr	r3, [sp, #8]
    2a02:	2b08      	cmp	r3, #8
    2a04:	d101      	bne.n	2a0a <_ZN5YAPFSL11follow_pathEPNS_9FATFS_DIREPKc+0x126>
    2a06:	00bf      	lsls	r7, r7, #2
    2a08:	b2ff      	uxtb	r7, r7
    2a0a:	230c      	movs	r3, #12
    2a0c:	403b      	ands	r3, r7
    2a0e:	2b0c      	cmp	r3, #12
    2a10:	d003      	beq.n	2a1a <_ZN5YAPFSL11follow_pathEPNS_9FATFS_DIREPKc+0x136>
    2a12:	2203      	movs	r2, #3
    2a14:	4017      	ands	r7, r2
    2a16:	4297      	cmp	r7, r2
    2a18:	d158      	bne.n	2acc <_ZN5YAPFSL11follow_pathEPNS_9FATFS_DIREPKc+0x1e8>
    2a1a:	2302      	movs	r3, #2
    2a1c:	431c      	orrs	r4, r3
    2a1e:	69ab      	ldr	r3, [r5, #24]
    2a20:	2100      	movs	r1, #0
    2a22:	72dc      	strb	r4, [r3, #11]
    2a24:	0028      	movs	r0, r5
    2a26:	f7ff fd36 	bl	2496 <_ZN5YAPFSL7dir_sdiEPNS_9FATFS_DIREt>
    2a2a:	2800      	cmp	r0, #0
    2a2c:	d102      	bne.n	2a34 <_ZN5YAPFSL11follow_pathEPNS_9FATFS_DIREPKc+0x150>
    2a2e:	0028      	movs	r0, r5
    2a30:	f7ff feba 	bl	27a8 <_ZN5YAPFSL8dir_findEPNS_9FATFS_DIRE.part.5>
    2a34:	69ab      	ldr	r3, [r5, #24]
    2a36:	7adb      	ldrb	r3, [r3, #11]
    2a38:	2800      	cmp	r0, #0
    2a3a:	d051      	beq.n	2ae0 <_ZN5YAPFSL11follow_pathEPNS_9FATFS_DIREPKc+0x1fc>
    2a3c:	2804      	cmp	r0, #4
    2a3e:	d000      	beq.n	2a42 <_ZN5YAPFSL11follow_pathEPNS_9FATFS_DIREPKc+0x15e>
    2a40:	e768      	b.n	2914 <_ZN5YAPFSL11follow_pathEPNS_9FATFS_DIREPKc+0x30>
    2a42:	4203      	tst	r3, r0
    2a44:	d000      	beq.n	2a48 <_ZN5YAPFSL11follow_pathEPNS_9FATFS_DIREPKc+0x164>
    2a46:	e765      	b.n	2914 <_ZN5YAPFSL11follow_pathEPNS_9FATFS_DIREPKc+0x30>
    2a48:	3001      	adds	r0, #1
    2a4a:	e763      	b.n	2914 <_ZN5YAPFSL11follow_pathEPNS_9FATFS_DIREPKc+0x30>
    2a4c:	9b03      	ldr	r3, [sp, #12]
    2a4e:	42b3      	cmp	r3, r6
    2a50:	d004      	beq.n	2a5c <_ZN5YAPFSL11follow_pathEPNS_9FATFS_DIREPKc+0x178>
    2a52:	2303      	movs	r3, #3
    2a54:	431c      	orrs	r4, r3
    2a56:	9b03      	ldr	r3, [sp, #12]
    2a58:	42b3      	cmp	r3, r6
    2a5a:	d8cb      	bhi.n	29f4 <_ZN5YAPFSL11follow_pathEPNS_9FATFS_DIREPKc+0x110>
    2a5c:	230b      	movs	r3, #11
    2a5e:	00bf      	lsls	r7, r7, #2
    2a60:	9302      	str	r3, [sp, #8]
    2a62:	b2ff      	uxtb	r7, r7
    2a64:	9603      	str	r6, [sp, #12]
    2a66:	3b03      	subs	r3, #3
    2a68:	9304      	str	r3, [sp, #16]
    2a6a:	e7af      	b.n	29cc <_ZN5YAPFSL11follow_pathEPNS_9FATFS_DIREPKc+0xe8>
    2a6c:	287f      	cmp	r0, #127	; 0x7f
    2a6e:	d90c      	bls.n	2a8a <_ZN5YAPFSL11follow_pathEPNS_9FATFS_DIREPKc+0x1a6>
    2a70:	2100      	movs	r1, #0
    2a72:	f7fe fe5b 	bl	172c <_ZN5YAPFS10ff_convertEtj>
    2a76:	2302      	movs	r3, #2
    2a78:	431c      	orrs	r4, r3
    2a7a:	2800      	cmp	r0, #0
    2a7c:	d01a      	beq.n	2ab4 <_ZN5YAPFSL11follow_pathEPNS_9FATFS_DIREPKc+0x1d0>
    2a7e:	4b31      	ldr	r3, [pc, #196]	; (2b44 <_ZN5YAPFSL11follow_pathEPNS_9FATFS_DIREPKc+0x260>)
    2a80:	181b      	adds	r3, r3, r0
    2a82:	3b80      	subs	r3, #128	; 0x80
    2a84:	7818      	ldrb	r0, [r3, #0]
    2a86:	2800      	cmp	r0, #0
    2a88:	d014      	beq.n	2ab4 <_ZN5YAPFSL11follow_pathEPNS_9FATFS_DIREPKc+0x1d0>
    2a8a:	4b2f      	ldr	r3, [pc, #188]	; (2b48 <_ZN5YAPFSL11follow_pathEPNS_9FATFS_DIREPKc+0x264>)
    2a8c:	781a      	ldrb	r2, [r3, #0]
    2a8e:	2a00      	cmp	r2, #0
    2a90:	d003      	beq.n	2a9a <_ZN5YAPFSL11follow_pathEPNS_9FATFS_DIREPKc+0x1b6>
    2a92:	4282      	cmp	r2, r0
    2a94:	d00e      	beq.n	2ab4 <_ZN5YAPFSL11follow_pathEPNS_9FATFS_DIREPKc+0x1d0>
    2a96:	3301      	adds	r3, #1
    2a98:	e7f8      	b.n	2a8c <_ZN5YAPFSL11follow_pathEPNS_9FATFS_DIREPKc+0x1a8>
    2a9a:	0003      	movs	r3, r0
    2a9c:	3b41      	subs	r3, #65	; 0x41
    2a9e:	2b19      	cmp	r3, #25
    2aa0:	d911      	bls.n	2ac6 <_ZN5YAPFSL11follow_pathEPNS_9FATFS_DIREPKc+0x1e2>
    2aa2:	0003      	movs	r3, r0
    2aa4:	3b61      	subs	r3, #97	; 0x61
    2aa6:	2b19      	cmp	r3, #25
    2aa8:	d807      	bhi.n	2aba <_ZN5YAPFSL11follow_pathEPNS_9FATFS_DIREPKc+0x1d6>
    2aaa:	2301      	movs	r3, #1
    2aac:	3820      	subs	r0, #32
    2aae:	431f      	orrs	r7, r3
    2ab0:	b280      	uxth	r0, r0
    2ab2:	e002      	b.n	2aba <_ZN5YAPFSL11follow_pathEPNS_9FATFS_DIREPKc+0x1d6>
    2ab4:	2303      	movs	r3, #3
    2ab6:	205f      	movs	r0, #95	; 0x5f
    2ab8:	431c      	orrs	r4, r3
    2aba:	69ab      	ldr	r3, [r5, #24]
    2abc:	9a04      	ldr	r2, [sp, #16]
    2abe:	5498      	strb	r0, [r3, r2]
    2ac0:	0013      	movs	r3, r2
    2ac2:	3301      	adds	r3, #1
    2ac4:	e7d0      	b.n	2a68 <_ZN5YAPFSL11follow_pathEPNS_9FATFS_DIREPKc+0x184>
    2ac6:	2302      	movs	r3, #2
    2ac8:	431f      	orrs	r7, r3
    2aca:	e7f6      	b.n	2aba <_ZN5YAPFSL11follow_pathEPNS_9FATFS_DIREPKc+0x1d6>
    2acc:	07a2      	lsls	r2, r4, #30
    2ace:	d4a6      	bmi.n	2a1e <_ZN5YAPFSL11follow_pathEPNS_9FATFS_DIREPKc+0x13a>
    2ad0:	2f01      	cmp	r7, #1
    2ad2:	d101      	bne.n	2ad8 <_ZN5YAPFSL11follow_pathEPNS_9FATFS_DIREPKc+0x1f4>
    2ad4:	2210      	movs	r2, #16
    2ad6:	4314      	orrs	r4, r2
    2ad8:	2b04      	cmp	r3, #4
    2ada:	d1a0      	bne.n	2a1e <_ZN5YAPFSL11follow_pathEPNS_9FATFS_DIREPKc+0x13a>
    2adc:	3304      	adds	r3, #4
    2ade:	e79d      	b.n	2a1c <_ZN5YAPFSL11follow_pathEPNS_9FATFS_DIREPKc+0x138>
    2ae0:	2204      	movs	r2, #4
    2ae2:	4213      	tst	r3, r2
    2ae4:	d000      	beq.n	2ae8 <_ZN5YAPFSL11follow_pathEPNS_9FATFS_DIREPKc+0x204>
    2ae6:	e715      	b.n	2914 <_ZN5YAPFSL11follow_pathEPNS_9FATFS_DIREPKc+0x30>
    2ae8:	6969      	ldr	r1, [r5, #20]
    2aea:	7acb      	ldrb	r3, [r1, #11]
    2aec:	06db      	lsls	r3, r3, #27
    2aee:	d511      	bpl.n	2b14 <_ZN5YAPFSL11follow_pathEPNS_9FATFS_DIREPKc+0x230>
    2af0:	682b      	ldr	r3, [r5, #0]
    2af2:	7818      	ldrb	r0, [r3, #0]
    2af4:	f7ff fa74 	bl	1fe0 <_ZN5YAPFSL8ld_clustEPNS_5FATFSEPh.isra.0>
    2af8:	60a8      	str	r0, [r5, #8]
    2afa:	9b01      	ldr	r3, [sp, #4]
    2afc:	781b      	ldrb	r3, [r3, #0]
    2afe:	2b2f      	cmp	r3, #47	; 0x2f
    2b00:	d002      	beq.n	2b08 <_ZN5YAPFSL11follow_pathEPNS_9FATFS_DIREPKc+0x224>
    2b02:	2b5c      	cmp	r3, #92	; 0x5c
    2b04:	d000      	beq.n	2b08 <_ZN5YAPFSL11follow_pathEPNS_9FATFS_DIREPKc+0x224>
    2b06:	e707      	b.n	2918 <_ZN5YAPFSL11follow_pathEPNS_9FATFS_DIREPKc+0x34>
    2b08:	9b01      	ldr	r3, [sp, #4]
    2b0a:	3301      	adds	r3, #1
    2b0c:	9301      	str	r3, [sp, #4]
    2b0e:	e7f4      	b.n	2afa <_ZN5YAPFSL11follow_pathEPNS_9FATFS_DIREPKc+0x216>
    2b10:	2006      	movs	r0, #6
    2b12:	e6ff      	b.n	2914 <_ZN5YAPFSL11follow_pathEPNS_9FATFS_DIREPKc+0x30>
    2b14:	2005      	movs	r0, #5
    2b16:	e6fd      	b.n	2914 <_ZN5YAPFSL11follow_pathEPNS_9FATFS_DIREPKc+0x30>
    2b18:	2100      	movs	r1, #0
    2b1a:	9a05      	ldr	r2, [sp, #20]
    2b1c:	69a8      	ldr	r0, [r5, #24]
    2b1e:	52d1      	strh	r1, [r2, r3]
    2b20:	220b      	movs	r2, #11
    2b22:	2120      	movs	r1, #32
    2b24:	f7ff fc39 	bl	239a <_ZN6MemOps3setEPvhj>
    2b28:	2300      	movs	r3, #0
    2b2a:	9905      	ldr	r1, [sp, #20]
    2b2c:	005a      	lsls	r2, r3, #1
    2b2e:	5a8a      	ldrh	r2, [r1, r2]
    2b30:	2a20      	cmp	r2, #32
    2b32:	d002      	beq.n	2b3a <_ZN5YAPFSL11follow_pathEPNS_9FATFS_DIREPKc+0x256>
    2b34:	2a2e      	cmp	r2, #46	; 0x2e
    2b36:	d000      	beq.n	2b3a <_ZN5YAPFSL11follow_pathEPNS_9FATFS_DIREPKc+0x256>
    2b38:	e728      	b.n	298c <_ZN5YAPFSL11follow_pathEPNS_9FATFS_DIREPKc+0xa8>
    2b3a:	3301      	adds	r3, #1
    2b3c:	e7f5      	b.n	2b2a <_ZN5YAPFSL11follow_pathEPNS_9FATFS_DIREPKc+0x246>
    2b3e:	46c0      	nop			; (mov r8, r8)
    2b40:	0204      	lsls	r4, r0, #8
    2b42:	0001      	movs	r1, r0
    2b44:	0221      	lsls	r1, r4, #8
    2b46:	0001      	movs	r1, r0
    2b48:	020d      	lsls	r5, r1, #8
    2b4a:	0001      	movs	r1, r0

00002b4c <_ZN5YAPFS11gen_numnameEPhPKhPKtt>:
_ZN5YAPFS11gen_numnameEPhPKhPKtt():
    2b4c:	b573      	push	{r0, r1, r4, r5, r6, lr}
    2b4e:	0016      	movs	r6, r2
    2b50:	220b      	movs	r2, #11
    2b52:	001c      	movs	r4, r3
    2b54:	0005      	movs	r5, r0
    2b56:	f7ff fc0b 	bl	2370 <_ZN6MemOps4copyEPvPKvj>
    2b5a:	2c05      	cmp	r4, #5
    2b5c:	d909      	bls.n	2b72 <_ZN5YAPFS11gen_numnameEPhPKhPKtt+0x26>
    2b5e:	8831      	ldrh	r1, [r6, #0]
    2b60:	1063      	asrs	r3, r4, #1
    2b62:	03e4      	lsls	r4, r4, #15
    2b64:	1864      	adds	r4, r4, r1
    2b66:	3602      	adds	r6, #2
    2b68:	18e4      	adds	r4, r4, r3
    2b6a:	8833      	ldrh	r3, [r6, #0]
    2b6c:	b2a4      	uxth	r4, r4
    2b6e:	2b00      	cmp	r3, #0
    2b70:	d1f5      	bne.n	2b5e <_ZN5YAPFS11gen_numnameEPhPKhPKtt+0x12>
    2b72:	2307      	movs	r3, #7
    2b74:	200f      	movs	r0, #15
    2b76:	0021      	movs	r1, r4
    2b78:	4001      	ands	r1, r0
    2b7a:	000a      	movs	r2, r1
    2b7c:	3230      	adds	r2, #48	; 0x30
    2b7e:	2a39      	cmp	r2, #57	; 0x39
    2b80:	d900      	bls.n	2b84 <_ZN5YAPFS11gen_numnameEPhPKhPKtt+0x38>
    2b82:	3207      	adds	r2, #7
    2b84:	3b01      	subs	r3, #1
    2b86:	0019      	movs	r1, r3
    2b88:	4469      	add	r1, sp
    2b8a:	704a      	strb	r2, [r1, #1]
    2b8c:	0922      	lsrs	r2, r4, #4
    2b8e:	b292      	uxth	r2, r2
    2b90:	2c0f      	cmp	r4, #15
    2b92:	d816      	bhi.n	2bc2 <_ZN5YAPFS11gen_numnameEPhPKhPKtt+0x76>
    2b94:	227e      	movs	r2, #126	; 0x7e
    2b96:	4669      	mov	r1, sp
    2b98:	54ca      	strb	r2, [r1, r3]
    2b9a:	2200      	movs	r2, #0
    2b9c:	1e6c      	subs	r4, r5, #1
    2b9e:	4293      	cmp	r3, r2
    2ba0:	d003      	beq.n	2baa <_ZN5YAPFS11gen_numnameEPhPKhPKtt+0x5e>
    2ba2:	1c51      	adds	r1, r2, #1
    2ba4:	5c60      	ldrb	r0, [r4, r1]
    2ba6:	2820      	cmp	r0, #32
    2ba8:	d10d      	bne.n	2bc6 <_ZN5YAPFS11gen_numnameEPhPKhPKtt+0x7a>
    2baa:	2020      	movs	r0, #32
    2bac:	0001      	movs	r1, r0
    2bae:	2b07      	cmp	r3, #7
    2bb0:	d802      	bhi.n	2bb8 <_ZN5YAPFS11gen_numnameEPhPKhPKtt+0x6c>
    2bb2:	4669      	mov	r1, sp
    2bb4:	5cc9      	ldrb	r1, [r1, r3]
    2bb6:	3301      	adds	r3, #1
    2bb8:	54a9      	strb	r1, [r5, r2]
    2bba:	3201      	adds	r2, #1
    2bbc:	2a07      	cmp	r2, #7
    2bbe:	d9f5      	bls.n	2bac <_ZN5YAPFS11gen_numnameEPhPKhPKtt+0x60>
    2bc0:	bd73      	pop	{r0, r1, r4, r5, r6, pc}
    2bc2:	0014      	movs	r4, r2
    2bc4:	e7d7      	b.n	2b76 <_ZN5YAPFS11gen_numnameEPhPKhPKtt+0x2a>
    2bc6:	000a      	movs	r2, r1
    2bc8:	e7e9      	b.n	2b9e <_ZN5YAPFS11gen_numnameEPhPKhPKtt+0x52>
    2bca:	ffff  	vsubw.u<illegal width 64>	q9, <illegal reg q7.5>, d11

00002bcc <_ZN5YAPFS7f_mountEhPNS_5FATFSE>:
_ZN5YAPFS7f_mountEhPNS_5FATFSE():
    2bcc:	230b      	movs	r3, #11
    2bce:	2800      	cmp	r0, #0
    2bd0:	d10a      	bne.n	2be8 <_ZN5YAPFS7f_mountEhPNS_5FATFSE+0x1c>
    2bd2:	4b06      	ldr	r3, [pc, #24]	; (2bec <_ZN5YAPFS7f_mountEhPNS_5FATFSE+0x20>)
    2bd4:	681a      	ldr	r2, [r3, #0]
    2bd6:	2a00      	cmp	r2, #0
    2bd8:	d000      	beq.n	2bdc <_ZN5YAPFS7f_mountEhPNS_5FATFSE+0x10>
    2bda:	7010      	strb	r0, [r2, #0]
    2bdc:	2900      	cmp	r1, #0
    2bde:	d001      	beq.n	2be4 <_ZN5YAPFS7f_mountEhPNS_5FATFSE+0x18>
    2be0:	2200      	movs	r2, #0
    2be2:	700a      	strb	r2, [r1, #0]
    2be4:	6019      	str	r1, [r3, #0]
    2be6:	2300      	movs	r3, #0
    2be8:	0018      	movs	r0, r3
    2bea:	4770      	bx	lr
    2bec:	049c      	lsls	r4, r3, #18
    2bee:	1000      	asrs	r0, r0, #32

00002bf0 <_ZN5YAPFS6f_openEPNS_3FILEPKch>:
_ZN5YAPFS6f_openEPNS_3FILEPKch():
    2bf0:	b5f0      	push	{r4, r5, r6, r7, lr}
    2bf2:	b0d7      	sub	sp, #348	; 0x15c
    2bf4:	0007      	movs	r7, r0
    2bf6:	9105      	str	r1, [sp, #20]
    2bf8:	0015      	movs	r5, r2
    2bfa:	2009      	movs	r0, #9
    2bfc:	2f00      	cmp	r7, #0
    2bfe:	d100      	bne.n	2c02 <_ZN5YAPFS6f_openEPNS_3FILEPKch+0x12>
    2c00:	e112      	b.n	2e28 <_ZN5YAPFS6f_openEPNS_3FILEPKch+0x238>
    2c02:	2300      	movs	r3, #0
    2c04:	221e      	movs	r2, #30
    2c06:	603b      	str	r3, [r7, #0]
    2c08:	402a      	ands	r2, r5
    2c0a:	a90d      	add	r1, sp, #52	; 0x34
    2c0c:	a805      	add	r0, sp, #20
    2c0e:	f7ff fa6d 	bl	20ec <_ZN5YAPFSL11chk_mountedEPPKcPPNS_5FATFSEh>
    2c12:	2800      	cmp	r0, #0
    2c14:	d000      	beq.n	2c18 <_ZN5YAPFS6f_openEPNS_3FILEPKch+0x28>
    2c16:	e107      	b.n	2e28 <_ZN5YAPFS6f_openEPNS_3FILEPKch+0x238>
    2c18:	ab07      	add	r3, sp, #28
    2c1a:	9313      	str	r3, [sp, #76]	; 0x4c
    2c1c:	9905      	ldr	r1, [sp, #20]
    2c1e:	ab16      	add	r3, sp, #88	; 0x58
    2c20:	a80d      	add	r0, sp, #52	; 0x34
    2c22:	9314      	str	r3, [sp, #80]	; 0x50
    2c24:	f7ff fe5e 	bl	28e4 <_ZN5YAPFSL11follow_pathEPNS_9FATFS_DIREPKc>
    2c28:	9c12      	ldr	r4, [sp, #72]	; 0x48
    2c2a:	2800      	cmp	r0, #0
    2c2c:	d102      	bne.n	2c34 <_ZN5YAPFS6f_openEPNS_3FILEPKch+0x44>
    2c2e:	2c00      	cmp	r4, #0
    2c30:	d100      	bne.n	2c34 <_ZN5YAPFS6f_openEPNS_3FILEPKch+0x44>
    2c32:	3006      	adds	r0, #6
    2c34:	231f      	movs	r3, #31
    2c36:	402b      	ands	r3, r5
    2c38:	9300      	str	r3, [sp, #0]
    2c3a:	231c      	movs	r3, #28
    2c3c:	421d      	tst	r5, r3
    2c3e:	d100      	bne.n	2c42 <_ZN5YAPFS6f_openEPNS_3FILEPKch+0x52>
    2c40:	e131      	b.n	2ea6 <_ZN5YAPFS6f_openEPNS_3FILEPKch+0x2b6>
    2c42:	2800      	cmp	r0, #0
    2c44:	d100      	bne.n	2c48 <_ZN5YAPFS6f_openEPNS_3FILEPKch+0x58>
    2c46:	e0f4      	b.n	2e32 <_ZN5YAPFS6f_openEPNS_3FILEPKch+0x242>
    2c48:	2804      	cmp	r0, #4
    2c4a:	d000      	beq.n	2c4e <_ZN5YAPFS6f_openEPNS_3FILEPKch+0x5e>
    2c4c:	e0ec      	b.n	2e28 <_ZN5YAPFS6f_openEPNS_3FILEPKch+0x238>
    2c4e:	9d13      	ldr	r5, [sp, #76]	; 0x4c
    2c50:	9b14      	ldr	r3, [sp, #80]	; 0x50
    2c52:	ac0a      	add	r4, sp, #40	; 0x28
    2c54:	0020      	movs	r0, r4
    2c56:	220c      	movs	r2, #12
    2c58:	0029      	movs	r1, r5
    2c5a:	9301      	str	r3, [sp, #4]
    2c5c:	f7ff fb88 	bl	2370 <_ZN6MemOps4copyEPvPKvj>
    2c60:	7ae3      	ldrb	r3, [r4, #11]
    2c62:	2401      	movs	r4, #1
    2c64:	4223      	tst	r3, r4
    2c66:	d100      	bne.n	2c6a <_ZN5YAPFS6f_openEPNS_3FILEPKch+0x7a>
    2c68:	e154      	b.n	2f14 <_ZN5YAPFS6f_openEPNS_3FILEPKch+0x324>
    2c6a:	2300      	movs	r3, #0
    2c6c:	72eb      	strb	r3, [r5, #11]
    2c6e:	9314      	str	r3, [sp, #80]	; 0x50
    2c70:	ae0a      	add	r6, sp, #40	; 0x28
    2c72:	0031      	movs	r1, r6
    2c74:	0028      	movs	r0, r5
    2c76:	0023      	movs	r3, r4
    2c78:	9a01      	ldr	r2, [sp, #4]
    2c7a:	f7ff ff67 	bl	2b4c <_ZN5YAPFS11gen_numnameEPhPKhPKtt>
    2c7e:	2100      	movs	r1, #0
    2c80:	a80d      	add	r0, sp, #52	; 0x34
    2c82:	f7ff fc08 	bl	2496 <_ZN5YAPFSL7dir_sdiEPNS_9FATFS_DIREt>
    2c86:	2800      	cmp	r0, #0
    2c88:	d000      	beq.n	2c8c <_ZN5YAPFS6f_openEPNS_3FILEPKch+0x9c>
    2c8a:	e13d      	b.n	2f08 <_ZN5YAPFS6f_openEPNS_3FILEPKch+0x318>
    2c8c:	a80d      	add	r0, sp, #52	; 0x34
    2c8e:	f7ff fd8b 	bl	27a8 <_ZN5YAPFSL8dir_findEPNS_9FATFS_DIRE.part.5>
    2c92:	2800      	cmp	r0, #0
    2c94:	d000      	beq.n	2c98 <_ZN5YAPFS6f_openEPNS_3FILEPKch+0xa8>
    2c96:	e137      	b.n	2f08 <_ZN5YAPFS6f_openEPNS_3FILEPKch+0x318>
    2c98:	3401      	adds	r4, #1
    2c9a:	b2a4      	uxth	r4, r4
    2c9c:	2c64      	cmp	r4, #100	; 0x64
    2c9e:	d1e7      	bne.n	2c70 <_ZN5YAPFS6f_openEPNS_3FILEPKch+0x80>
    2ca0:	2007      	movs	r0, #7
    2ca2:	e0c1      	b.n	2e28 <_ZN5YAPFS6f_openEPNS_3FILEPKch+0x238>
    2ca4:	3019      	adds	r0, #25
    2ca6:	210d      	movs	r1, #13
    2ca8:	f009 ff66 	bl	cb78 <__divsi3>
    2cac:	b283      	uxth	r3, r0
    2cae:	9302      	str	r3, [sp, #8]
    2cb0:	ad0d      	add	r5, sp, #52	; 0x34
    2cb2:	2100      	movs	r1, #0
    2cb4:	0028      	movs	r0, r5
    2cb6:	f7ff fbee 	bl	2496 <_ZN5YAPFSL7dir_sdiEPNS_9FATFS_DIREt>
    2cba:	2800      	cmp	r0, #0
    2cbc:	d000      	beq.n	2cc0 <_ZN5YAPFS6f_openEPNS_3FILEPKch+0xd0>
    2cbe:	e0b3      	b.n	2e28 <_ZN5YAPFS6f_openEPNS_3FILEPKch+0x238>
    2cc0:	0006      	movs	r6, r0
    2cc2:	0004      	movs	r4, r0
    2cc4:	6929      	ldr	r1, [r5, #16]
    2cc6:	6828      	ldr	r0, [r5, #0]
    2cc8:	f7ff f999 	bl	1ffe <_ZN5YAPFSL11move_windowEPNS_5FATFSEm>
    2ccc:	2800      	cmp	r0, #0
    2cce:	d000      	beq.n	2cd2 <_ZN5YAPFS6f_openEPNS_3FILEPKch+0xe2>
    2cd0:	e0aa      	b.n	2e28 <_ZN5YAPFS6f_openEPNS_3FILEPKch+0x238>
    2cd2:	696b      	ldr	r3, [r5, #20]
    2cd4:	781b      	ldrb	r3, [r3, #0]
    2cd6:	2be5      	cmp	r3, #229	; 0xe5
    2cd8:	d002      	beq.n	2ce0 <_ZN5YAPFS6f_openEPNS_3FILEPKch+0xf0>
    2cda:	2b00      	cmp	r3, #0
    2cdc:	d000      	beq.n	2ce0 <_ZN5YAPFS6f_openEPNS_3FILEPKch+0xf0>
    2cde:	e09b      	b.n	2e18 <_ZN5YAPFS6f_openEPNS_3FILEPKch+0x228>
    2ce0:	2c00      	cmp	r4, #0
    2ce2:	d100      	bne.n	2ce6 <_ZN5YAPFS6f_openEPNS_3FILEPKch+0xf6>
    2ce4:	88ee      	ldrh	r6, [r5, #6]
    2ce6:	3401      	adds	r4, #1
    2ce8:	9b02      	ldr	r3, [sp, #8]
    2cea:	b2a4      	uxth	r4, r4
    2cec:	429c      	cmp	r4, r3
    2cee:	d000      	beq.n	2cf2 <_ZN5YAPFS6f_openEPNS_3FILEPKch+0x102>
    2cf0:	e093      	b.n	2e1a <_ZN5YAPFS6f_openEPNS_3FILEPKch+0x22a>
    2cf2:	2c01      	cmp	r4, #1
    2cf4:	d051      	beq.n	2d9a <_ZN5YAPFS6f_openEPNS_3FILEPKch+0x1aa>
    2cf6:	0031      	movs	r1, r6
    2cf8:	0028      	movs	r0, r5
    2cfa:	f7ff fbcc 	bl	2496 <_ZN5YAPFSL7dir_sdiEPNS_9FATFS_DIREt>
    2cfe:	2800      	cmp	r0, #0
    2d00:	d000      	beq.n	2d04 <_ZN5YAPFS6f_openEPNS_3FILEPKch+0x114>
    2d02:	e091      	b.n	2e28 <_ZN5YAPFS6f_openEPNS_3FILEPKch+0x238>
    2d04:	69a8      	ldr	r0, [r5, #24]
    2d06:	f7ff f947 	bl	1f98 <_ZN5YAPFSL7sum_sfnEPKh>
    2d0a:	3c01      	subs	r4, #1
    2d0c:	9002      	str	r0, [sp, #8]
    2d0e:	b2a6      	uxth	r6, r4
    2d10:	9911      	ldr	r1, [sp, #68]	; 0x44
    2d12:	980d      	ldr	r0, [sp, #52]	; 0x34
    2d14:	f7ff f973 	bl	1ffe <_ZN5YAPFSL11move_windowEPNS_5FATFSEm>
    2d18:	2800      	cmp	r0, #0
    2d1a:	d000      	beq.n	2d1e <_ZN5YAPFS6f_openEPNS_3FILEPKch+0x12e>
    2d1c:	e084      	b.n	2e28 <_ZN5YAPFS6f_openEPNS_3FILEPKch+0x238>
    2d1e:	9b14      	ldr	r3, [sp, #80]	; 0x50
    2d20:	9a02      	ldr	r2, [sp, #8]
    2d22:	469c      	mov	ip, r3
    2d24:	9b12      	ldr	r3, [sp, #72]	; 0x48
    2d26:	210d      	movs	r1, #13
    2d28:	735a      	strb	r2, [r3, #13]
    2d2a:	220f      	movs	r2, #15
    2d2c:	b2f5      	uxtb	r5, r6
    2d2e:	72da      	strb	r2, [r3, #11]
    2d30:	1e6a      	subs	r2, r5, #1
    2d32:	4351      	muls	r1, r2
    2d34:	9101      	str	r1, [sp, #4]
    2d36:	0001      	movs	r1, r0
    2d38:	7318      	strb	r0, [r3, #12]
    2d3a:	7698      	strb	r0, [r3, #26]
    2d3c:	76d8      	strb	r0, [r3, #27]
    2d3e:	4c7e      	ldr	r4, [pc, #504]	; (2f38 <_ZN5YAPFS6f_openEPNS_3FILEPKch+0x348>)
    2d40:	42a0      	cmp	r0, r4
    2d42:	d005      	beq.n	2d50 <_ZN5YAPFS6f_openEPNS_3FILEPKch+0x160>
    2d44:	4664      	mov	r4, ip
    2d46:	9a01      	ldr	r2, [sp, #4]
    2d48:	0050      	lsls	r0, r2, #1
    2d4a:	5b00      	ldrh	r0, [r0, r4]
    2d4c:	3201      	adds	r2, #1
